   1               		.file	"split_util.c"
   2               	__SP_H__ = 0x3e
   3               	__SP_L__ = 0x3d
   4               	__SREG__ = 0x3f
   5               	__tmp_reg__ = 0
   6               	__zero_reg__ = 1
   7               		.text
   8               	.Ltext0:
   9               		.cfi_sections	.debug_frame
  10               		.section	.text.is_keyboard_master,"ax",@progbits
  11               		.weak	is_keyboard_master
  13               	is_keyboard_master:
  14               	.LFB29:
  15               		.file 1 "quantum/split_common/split_util.c"
   1:quantum/split_common/split_util.c **** /* Copyright 2021 QMK
   2:quantum/split_common/split_util.c ****  *
   3:quantum/split_common/split_util.c ****  * This program is free software: you can redistribute it and/or modify
   4:quantum/split_common/split_util.c ****  * it under the terms of the GNU General Public License as published by
   5:quantum/split_common/split_util.c ****  * the Free Software Foundation, either version 3 of the License, or
   6:quantum/split_common/split_util.c ****  * (at your option) any later version.
   7:quantum/split_common/split_util.c ****  *
   8:quantum/split_common/split_util.c ****  * This program is distributed in the hope that it will be useful,
   9:quantum/split_common/split_util.c ****  * but WITHOUT ANY WARRANTY; without even the implied warranty of
  10:quantum/split_common/split_util.c ****  * MERCHANTABILITY or FITNESS FOR A PARTICULAR PURPOSE.  See the
  11:quantum/split_common/split_util.c ****  * GNU General Public License for more details.
  12:quantum/split_common/split_util.c ****  *
  13:quantum/split_common/split_util.c ****  * You should have received a copy of the GNU General Public License
  14:quantum/split_common/split_util.c ****  * along with this program.  If not, see <http://www.gnu.org/licenses/>.
  15:quantum/split_common/split_util.c ****  */
  16:quantum/split_common/split_util.c **** #include "split_util.h"
  17:quantum/split_common/split_util.c **** #include "matrix.h"
  18:quantum/split_common/split_util.c **** #include "keyboard.h"
  19:quantum/split_common/split_util.c **** #include "config.h"
  20:quantum/split_common/split_util.c **** #include "timer.h"
  21:quantum/split_common/split_util.c **** #include "transport.h"
  22:quantum/split_common/split_util.c **** #include "quantum.h"
  23:quantum/split_common/split_util.c **** #include "wait.h"
  24:quantum/split_common/split_util.c **** #include "usb_util.h"
  25:quantum/split_common/split_util.c **** 
  26:quantum/split_common/split_util.c **** #ifdef EE_HANDS
  27:quantum/split_common/split_util.c **** #    include "eeconfig.h"
  28:quantum/split_common/split_util.c **** #endif
  29:quantum/split_common/split_util.c **** 
  30:quantum/split_common/split_util.c **** #if defined(RGBLIGHT_ENABLE) && defined(RGBLED_SPLIT)
  31:quantum/split_common/split_util.c **** #    include "rgblight.h"
  32:quantum/split_common/split_util.c **** #endif
  33:quantum/split_common/split_util.c **** 
  34:quantum/split_common/split_util.c **** #ifndef SPLIT_USB_TIMEOUT
  35:quantum/split_common/split_util.c **** #    define SPLIT_USB_TIMEOUT 2000
  36:quantum/split_common/split_util.c **** #endif
  37:quantum/split_common/split_util.c **** 
  38:quantum/split_common/split_util.c **** #ifndef SPLIT_USB_TIMEOUT_POLL
  39:quantum/split_common/split_util.c **** #    define SPLIT_USB_TIMEOUT_POLL 10
  40:quantum/split_common/split_util.c **** #endif
  41:quantum/split_common/split_util.c **** 
  42:quantum/split_common/split_util.c **** // Max number of consecutive failed communications (one per scan cycle) before the communication is
  43:quantum/split_common/split_util.c **** // Set to 0 to disable the disconnection check altogether.
  44:quantum/split_common/split_util.c **** #ifndef SPLIT_MAX_CONNECTION_ERRORS
  45:quantum/split_common/split_util.c **** #    define SPLIT_MAX_CONNECTION_ERRORS 10
  46:quantum/split_common/split_util.c **** #endif  // SPLIT_MAX_CONNECTION_ERRORS
  47:quantum/split_common/split_util.c **** 
  48:quantum/split_common/split_util.c **** // How long (in milliseconds) to block all connection attempts after the communication has been fla
  49:quantum/split_common/split_util.c **** // One communication attempt will be allowed everytime this amount of time has passed since the las
  50:quantum/split_common/split_util.c **** // Set to 0 to disable communication throttling while disconnected
  51:quantum/split_common/split_util.c **** #ifndef SPLIT_CONNECTION_CHECK_TIMEOUT
  52:quantum/split_common/split_util.c **** #    define SPLIT_CONNECTION_CHECK_TIMEOUT 500
  53:quantum/split_common/split_util.c **** #endif  // SPLIT_CONNECTION_CHECK_TIMEOUT
  54:quantum/split_common/split_util.c **** 
  55:quantum/split_common/split_util.c **** static uint8_t connection_errors = 0;
  56:quantum/split_common/split_util.c **** 
  57:quantum/split_common/split_util.c **** volatile bool isLeftHand = true;
  58:quantum/split_common/split_util.c **** 
  59:quantum/split_common/split_util.c **** #if defined(SPLIT_USB_DETECT)
  60:quantum/split_common/split_util.c **** static bool usbIsActive(void) {
  61:quantum/split_common/split_util.c ****     for (uint8_t i = 0; i < (SPLIT_USB_TIMEOUT / SPLIT_USB_TIMEOUT_POLL); i++) {
  62:quantum/split_common/split_util.c ****         // This will return true if a USB connection has been established
  63:quantum/split_common/split_util.c ****         if (usb_connected_state()) {
  64:quantum/split_common/split_util.c ****             return true;
  65:quantum/split_common/split_util.c ****         }
  66:quantum/split_common/split_util.c ****         wait_ms(SPLIT_USB_TIMEOUT_POLL);
  67:quantum/split_common/split_util.c ****     }
  68:quantum/split_common/split_util.c ****     return false;
  69:quantum/split_common/split_util.c **** }
  70:quantum/split_common/split_util.c **** #else
  71:quantum/split_common/split_util.c **** static inline bool usbIsActive(void) { return usb_vbus_state(); }
  72:quantum/split_common/split_util.c **** #endif
  73:quantum/split_common/split_util.c **** 
  74:quantum/split_common/split_util.c **** #ifdef SPLIT_HAND_MATRIX_GRID
  75:quantum/split_common/split_util.c **** void matrix_io_delay(void);
  76:quantum/split_common/split_util.c **** 
  77:quantum/split_common/split_util.c **** static uint8_t peek_matrix_intersection(pin_t out_pin, pin_t in_pin) {
  78:quantum/split_common/split_util.c ****     setPinInputHigh(in_pin);
  79:quantum/split_common/split_util.c ****     setPinOutput(out_pin);
  80:quantum/split_common/split_util.c ****     writePinLow(out_pin);
  81:quantum/split_common/split_util.c ****     // It's almost unnecessary, but wait until it's down to low, just in case.
  82:quantum/split_common/split_util.c ****     wait_us(1);
  83:quantum/split_common/split_util.c ****     uint8_t pin_state = readPin(in_pin);
  84:quantum/split_common/split_util.c ****     // Set out_pin to a setting that is less susceptible to noise.
  85:quantum/split_common/split_util.c ****     setPinInputHigh(out_pin);
  86:quantum/split_common/split_util.c ****     matrix_io_delay();  // Wait for the pull-up to go HIGH.
  87:quantum/split_common/split_util.c ****     return pin_state;
  88:quantum/split_common/split_util.c **** }
  89:quantum/split_common/split_util.c **** #endif
  90:quantum/split_common/split_util.c **** 
  91:quantum/split_common/split_util.c **** __attribute__((weak)) bool is_keyboard_left(void) {
  92:quantum/split_common/split_util.c **** #if defined(SPLIT_HAND_PIN)
  93:quantum/split_common/split_util.c ****     // Test pin SPLIT_HAND_PIN for High/Low, if low it's right hand
  94:quantum/split_common/split_util.c ****     setPinInput(SPLIT_HAND_PIN);
  95:quantum/split_common/split_util.c **** #    ifdef SPLIT_HAND_PIN_LOW_IS_LEFT
  96:quantum/split_common/split_util.c ****     return !readPin(SPLIT_HAND_PIN);
  97:quantum/split_common/split_util.c **** #    else
  98:quantum/split_common/split_util.c ****     return readPin(SPLIT_HAND_PIN);
  99:quantum/split_common/split_util.c **** #    endif
 100:quantum/split_common/split_util.c **** #elif defined(SPLIT_HAND_MATRIX_GRID)
 101:quantum/split_common/split_util.c **** #    ifdef SPLIT_HAND_MATRIX_GRID_LOW_IS_RIGHT
 102:quantum/split_common/split_util.c ****     return peek_matrix_intersection(SPLIT_HAND_MATRIX_GRID);
 103:quantum/split_common/split_util.c **** #    else
 104:quantum/split_common/split_util.c ****     return !peek_matrix_intersection(SPLIT_HAND_MATRIX_GRID);
 105:quantum/split_common/split_util.c **** #    endif
 106:quantum/split_common/split_util.c **** #elif defined(EE_HANDS)
 107:quantum/split_common/split_util.c ****     return eeconfig_read_handedness();
 108:quantum/split_common/split_util.c **** #elif defined(MASTER_RIGHT)
 109:quantum/split_common/split_util.c ****     return !is_keyboard_master();
 110:quantum/split_common/split_util.c **** #endif
 111:quantum/split_common/split_util.c **** 
 112:quantum/split_common/split_util.c ****     return is_keyboard_master();
 113:quantum/split_common/split_util.c **** }
 114:quantum/split_common/split_util.c **** 
 115:quantum/split_common/split_util.c **** __attribute__((weak)) bool is_keyboard_master(void) {
  16               		.loc 1 115 53 view -0
  17               		.cfi_startproc
  18               	/* prologue: function */
  19               	/* frame size = 0 */
  20               	/* stack size = 0 */
  21               	.L__stack_usage = 0
 116:quantum/split_common/split_util.c ****     static enum { UNKNOWN, MASTER, SLAVE } usbstate = UNKNOWN;
  22               		.loc 1 116 5 view .LVU1
 117:quantum/split_common/split_util.c **** 
 118:quantum/split_common/split_util.c ****     // only check once, as this is called often
 119:quantum/split_common/split_util.c ****     if (usbstate == UNKNOWN) {
  23               		.loc 1 119 5 view .LVU2
  24               		.loc 1 119 8 is_stmt 0 view .LVU3
  25 0000 8091 0000 		lds r24,usbstate.3
  26 0004 8111      		cpse r24,__zero_reg__
  27 0006 00C0      		rjmp .L2
 120:quantum/split_common/split_util.c ****         usbstate = usbIsActive() ? MASTER : SLAVE;
  28               		.loc 1 120 9 is_stmt 1 view .LVU4
  29               	.LBB4:
  30               	.LBI4:
  71:quantum/split_common/split_util.c **** #endif
  31               		.loc 1 71 20 view .LVU5
  32               	.LBB5:
  71:quantum/split_common/split_util.c **** #endif
  33               		.loc 1 71 40 view .LVU6
  71:quantum/split_common/split_util.c **** #endif
  34               		.loc 1 71 47 is_stmt 0 view .LVU7
  35 0008 0E94 0000 		call usb_vbus_state
  36               	.LVL0:
  37               	.LBE5:
  38               	.LBE4:
  39               		.loc 1 120 43 view .LVU8
  40 000c 8823      		tst r24
  41 000e 01F0      		breq .L3
  42               		.loc 1 120 18 view .LVU9
  43 0010 81E0      		ldi r24,lo8(1)
  44 0012 8093 0000 		sts usbstate.3,r24
 121:quantum/split_common/split_util.c **** 
 122:quantum/split_common/split_util.c ****         // Avoid NO_USB_STARTUP_CHECK - Disable USB as the previous checks seem to enable it someho
 123:quantum/split_common/split_util.c ****         if (usbstate == SLAVE) {
  45               		.loc 1 123 9 is_stmt 1 view .LVU10
  46               	.L2:
 124:quantum/split_common/split_util.c ****             usb_disconnect();
 125:quantum/split_common/split_util.c ****         }
 126:quantum/split_common/split_util.c ****     }
 127:quantum/split_common/split_util.c **** 
 128:quantum/split_common/split_util.c ****     return (usbstate == MASTER);
  47               		.loc 1 128 5 view .LVU11
  48               		.loc 1 128 22 is_stmt 0 view .LVU12
  49 0016 81E0      		ldi r24,lo8(1)
  50 0018 9091 0000 		lds r25,usbstate.3
  51 001c 9130      		cpi r25,lo8(1)
  52 001e 01F0      		breq .L4
  53 0020 80E0      		ldi r24,0
  54               	.L4:
  55               	/* epilogue start */
 129:quantum/split_common/split_util.c **** }
  56               		.loc 1 129 1 view .LVU13
  57 0022 0895      		ret
  58               	.L3:
 120:quantum/split_common/split_util.c **** 
  59               		.loc 1 120 18 view .LVU14
  60 0024 82E0      		ldi r24,lo8(2)
  61 0026 8093 0000 		sts usbstate.3,r24
 123:quantum/split_common/split_util.c ****             usb_disconnect();
  62               		.loc 1 123 9 is_stmt 1 view .LVU15
 124:quantum/split_common/split_util.c ****         }
  63               		.loc 1 124 13 view .LVU16
  64 002a 0E94 0000 		call usb_disconnect
  65               	.LVL1:
  66 002e 00C0      		rjmp .L2
  67               		.cfi_endproc
  68               	.LFE29:
  70               		.section	.text.is_keyboard_left,"ax",@progbits
  71               		.weak	is_keyboard_left
  73               	is_keyboard_left:
  74               	.LFB28:
  91:quantum/split_common/split_util.c **** #if defined(SPLIT_HAND_PIN)
  75               		.loc 1 91 51 view -0
  76               		.cfi_startproc
  77               	/* prologue: function */
  78               	/* frame size = 0 */
  79               	/* stack size = 0 */
  80               	.L__stack_usage = 0
 112:quantum/split_common/split_util.c **** }
  81               		.loc 1 112 5 view .LVU18
 112:quantum/split_common/split_util.c **** }
  82               		.loc 1 112 12 is_stmt 0 view .LVU19
  83 0000 0C94 0000 		jmp is_keyboard_master
  84               	.LVL2:
  85               		.cfi_endproc
  86               	.LFE28:
  88               		.section	.text.split_pre_init,"ax",@progbits
  89               	.global	split_pre_init
  91               	split_pre_init:
  92               	.LFB30:
 130:quantum/split_common/split_util.c **** 
 131:quantum/split_common/split_util.c **** // this code runs before the keyboard is fully initialized
 132:quantum/split_common/split_util.c **** void split_pre_init(void) {
  93               		.loc 1 132 27 is_stmt 1 view -0
  94               		.cfi_startproc
  95               	/* prologue: function */
  96               	/* frame size = 0 */
  97               	/* stack size = 0 */
  98               	.L__stack_usage = 0
 133:quantum/split_common/split_util.c ****     isLeftHand = is_keyboard_left();
  99               		.loc 1 133 5 view .LVU21
 100               		.loc 1 133 18 is_stmt 0 view .LVU22
 101 0000 0E94 0000 		call is_keyboard_left
 102               	.LVL3:
 103               		.loc 1 133 16 view .LVU23
 104 0004 8093 0000 		sts isLeftHand,r24
 134:quantum/split_common/split_util.c **** 
 135:quantum/split_common/split_util.c **** #if defined(RGBLIGHT_ENABLE) && defined(RGBLED_SPLIT)
 136:quantum/split_common/split_util.c ****     uint8_t num_rgb_leds_split[2] = RGBLED_SPLIT;
 137:quantum/split_common/split_util.c ****     if (isLeftHand) {
 138:quantum/split_common/split_util.c ****         rgblight_set_clipping_range(0, num_rgb_leds_split[0]);
 139:quantum/split_common/split_util.c ****     } else {
 140:quantum/split_common/split_util.c ****         rgblight_set_clipping_range(num_rgb_leds_split[0], num_rgb_leds_split[1]);
 141:quantum/split_common/split_util.c ****     }
 142:quantum/split_common/split_util.c **** #endif
 143:quantum/split_common/split_util.c **** 
 144:quantum/split_common/split_util.c ****     if (is_keyboard_master()) {
 105               		.loc 1 144 5 is_stmt 1 view .LVU24
 106               		.loc 1 144 9 is_stmt 0 view .LVU25
 107 0008 0E94 0000 		call is_keyboard_master
 108               	.LVL4:
 109               		.loc 1 144 8 view .LVU26
 110 000c 8111      		cpse r24,__zero_reg__
 145:quantum/split_common/split_util.c **** #if defined(USE_I2C) && defined(SSD1306OLED)
 146:quantum/split_common/split_util.c ****         matrix_master_OLED_init();
 147:quantum/split_common/split_util.c **** #endif
 148:quantum/split_common/split_util.c ****         transport_master_init();
 111               		.loc 1 148 9 is_stmt 1 view .LVU27
 112 000e 0C94 0000 		jmp transport_master_init
 113               	.LVL5:
 114               	.L9:
 115               	/* epilogue start */
 149:quantum/split_common/split_util.c ****     }
 150:quantum/split_common/split_util.c **** }
 116               		.loc 1 150 1 is_stmt 0 view .LVU28
 117 0012 0895      		ret
 118               		.cfi_endproc
 119               	.LFE30:
 121               		.section	.text.split_post_init,"ax",@progbits
 122               	.global	split_post_init
 124               	split_post_init:
 125               	.LFB31:
 151:quantum/split_common/split_util.c **** 
 152:quantum/split_common/split_util.c **** // this code runs after the keyboard is fully initialized
 153:quantum/split_common/split_util.c **** //   - avoids race condition during matrix_init_quantum where slave can start
 154:quantum/split_common/split_util.c **** //     receiving before the init process has completed
 155:quantum/split_common/split_util.c **** void split_post_init(void) {
 126               		.loc 1 155 28 is_stmt 1 view -0
 127               		.cfi_startproc
 128               	/* prologue: function */
 129               	/* frame size = 0 */
 130               	/* stack size = 0 */
 131               	.L__stack_usage = 0
 156:quantum/split_common/split_util.c ****     if (!is_keyboard_master()) {
 132               		.loc 1 156 5 view .LVU30
 133               		.loc 1 156 10 is_stmt 0 view .LVU31
 134 0000 0E94 0000 		call is_keyboard_master
 135               	.LVL6:
 136               		.loc 1 156 8 view .LVU32
 137 0004 8111      		cpse r24,__zero_reg__
 138 0006 00C0      		rjmp .L11
 157:quantum/split_common/split_util.c ****         transport_slave_init();
 139               		.loc 1 157 9 is_stmt 1 view .LVU33
 140 0008 0C94 0000 		jmp transport_slave_init
 141               	.LVL7:
 142               	.L11:
 143               	/* epilogue start */
 158:quantum/split_common/split_util.c ****     }
 159:quantum/split_common/split_util.c **** }
 144               		.loc 1 159 1 is_stmt 0 view .LVU34
 145 000c 0895      		ret
 146               		.cfi_endproc
 147               	.LFE31:
 149               		.section	.text.is_transport_connected,"ax",@progbits
 150               	.global	is_transport_connected
 152               	is_transport_connected:
 153               	.LFB32:
 160:quantum/split_common/split_util.c **** 
 161:quantum/split_common/split_util.c **** bool is_transport_connected(void) { return connection_errors < SPLIT_MAX_CONNECTION_ERRORS; }
 154               		.loc 1 161 35 is_stmt 1 view -0
 155               		.cfi_startproc
 156               	/* prologue: function */
 157               	/* frame size = 0 */
 158               	/* stack size = 0 */
 159               	.L__stack_usage = 0
 160               		.loc 1 161 37 view .LVU36
 161               		.loc 1 161 62 is_stmt 0 view .LVU37
 162 0000 81E0      		ldi r24,lo8(1)
 163 0002 9091 0000 		lds r25,connection_errors
 164 0006 9A30      		cpi r25,lo8(10)
 165 0008 00F0      		brlo .L14
 166 000a 80E0      		ldi r24,0
 167               	.L14:
 168               	/* epilogue start */
 169               		.loc 1 161 93 view .LVU38
 170 000c 0895      		ret
 171               		.cfi_endproc
 172               	.LFE32:
 174               		.section	.text.transport_master_if_connected,"ax",@progbits
 175               	.global	transport_master_if_connected
 177               	transport_master_if_connected:
 178               	.LVL8:
 179               	.LFB33:
 162:quantum/split_common/split_util.c **** 
 163:quantum/split_common/split_util.c **** bool transport_master_if_connected(matrix_row_t master_matrix[], matrix_row_t slave_matrix[]) {
 180               		.loc 1 163 95 is_stmt 1 view -0
 181               		.cfi_startproc
 182               		.loc 1 163 95 is_stmt 0 view .LVU40
 183 0000 FF92      		push r15
 184               	.LCFI0:
 185               		.cfi_def_cfa_offset 3
 186               		.cfi_offset 15, -2
 187 0002 0F93      		push r16
 188               	.LCFI1:
 189               		.cfi_def_cfa_offset 4
 190               		.cfi_offset 16, -3
 191 0004 1F93      		push r17
 192               	.LCFI2:
 193               		.cfi_def_cfa_offset 5
 194               		.cfi_offset 17, -4
 195 0006 CF93      		push r28
 196               	.LCFI3:
 197               		.cfi_def_cfa_offset 6
 198               		.cfi_offset 28, -5
 199 0008 DF93      		push r29
 200               	.LCFI4:
 201               		.cfi_def_cfa_offset 7
 202               		.cfi_offset 29, -6
 203               	/* prologue: function */
 204               	/* frame size = 0 */
 205               	/* stack size = 5 */
 206               	.L__stack_usage = 5
 207 000a EC01      		movw r28,r24
 208 000c 162F      		mov r17,r22
 209 000e 072F      		mov r16,r23
 164:quantum/split_common/split_util.c **** #if SPLIT_MAX_CONNECTION_ERRORS > 0 && SPLIT_CONNECTION_CHECK_TIMEOUT > 0
 165:quantum/split_common/split_util.c ****     // Throttle transaction attempts if target doesn't seem to be connected
 166:quantum/split_common/split_util.c ****     // Without this, a solo half becomes unusable due to constant read timeouts
 167:quantum/split_common/split_util.c ****     static uint16_t connection_check_timer = 0;
 210               		.loc 1 167 5 is_stmt 1 view .LVU41
 168:quantum/split_common/split_util.c ****     const bool      is_disconnected        = !is_transport_connected();
 211               		.loc 1 168 5 view .LVU42
 212               	.LBB13:
 213               	.LBI13:
 161:quantum/split_common/split_util.c **** 
 214               		.loc 1 161 6 view .LVU43
 215               	.LBB14:
 161:quantum/split_common/split_util.c **** 
 216               		.loc 1 161 37 view .LVU44
 161:quantum/split_common/split_util.c **** 
 217               		.loc 1 161 62 is_stmt 0 view .LVU45
 218 0010 F090 0000 		lds r15,connection_errors
 219               	.LVL9:
 161:quantum/split_common/split_util.c **** 
 220               		.loc 1 161 62 view .LVU46
 221               	.LBE14:
 222               	.LBE13:
 169:quantum/split_common/split_util.c ****     if (is_disconnected && timer_elapsed(connection_check_timer) < SPLIT_CONNECTION_CHECK_TIMEOUT) 
 223               		.loc 1 169 5 is_stmt 1 view .LVU47
 224               		.loc 1 169 8 is_stmt 0 view .LVU48
 225 0014 29E0      		ldi r18,lo8(9)
 226 0016 2F15      		cp r18,r15
 227 0018 00F0      		brlo .L16
 228               	.LVL10:
 229               	.L19:
 170:quantum/split_common/split_util.c ****         return false;
 171:quantum/split_common/split_util.c ****     }
 172:quantum/split_common/split_util.c **** #endif  // SPLIT_MAX_CONNECTION_ERRORS > 0 && SPLIT_CONNECTION_CHECK_TIMEOUT > 0
 173:quantum/split_common/split_util.c **** 
 174:quantum/split_common/split_util.c ****     __attribute__((unused)) bool okay = transport_master(master_matrix, slave_matrix);
 230               		.loc 1 174 5 is_stmt 1 view .LVU49
 231               		.loc 1 174 41 is_stmt 0 view .LVU50
 232 001a 612F      		mov r22,r17
 233 001c 702F      		mov r23,r16
 234 001e CE01      		movw r24,r28
 235 0020 0E94 0000 		call transport_master
 236               	.LVL11:
 237 0024 C82F      		mov r28,r24
 238               	.LVL12:
 175:quantum/split_common/split_util.c **** #if SPLIT_MAX_CONNECTION_ERRORS > 0
 176:quantum/split_common/split_util.c ****     if (!okay) {
 239               		.loc 1 176 5 is_stmt 1 view .LVU51
 240               		.loc 1 176 8 is_stmt 0 view .LVU52
 241 0026 8111      		cpse r24,__zero_reg__
 242 0028 00C0      		rjmp .L17
 243               	.LBB15:
 177:quantum/split_common/split_util.c ****         if (connection_errors < UINT8_MAX) {
 244               		.loc 1 177 9 is_stmt 1 view .LVU53
 245               		.loc 1 177 31 is_stmt 0 view .LVU54
 246 002a 8091 0000 		lds r24,connection_errors
 247               	.LVL13:
 248               		.loc 1 177 12 view .LVU55
 249 002e 8F3F      		cpi r24,lo8(-1)
 250 0030 01F4      		brne .L21
 251               	.L24:
 178:quantum/split_common/split_util.c ****             connection_errors++;
 179:quantum/split_common/split_util.c ****         }
 180:quantum/split_common/split_util.c **** #    if SPLIT_CONNECTION_CHECK_TIMEOUT > 0
 181:quantum/split_common/split_util.c ****         bool connected = is_transport_connected();
 182:quantum/split_common/split_util.c ****         if (!connected) {
 183:quantum/split_common/split_util.c ****             connection_check_timer = timer_read();
 252               		.loc 1 183 13 is_stmt 1 view .LVU56
 253               		.loc 1 183 38 is_stmt 0 view .LVU57
 254 0032 0E94 0000 		call timer_read
 255               	.LVL14:
 256               		.loc 1 183 36 view .LVU58
 257 0036 9093 0000 		sts connection_check_timer.2+1,r25
 258 003a 8093 0000 		sts connection_check_timer.2,r24
 184:quantum/split_common/split_util.c ****             dprintln("Target disconnected, throttling connection attempts");
 259               		.loc 1 184 13 is_stmt 1 view .LVU59
 260               		.loc 1 184 13 view .LVU60
 261 003e 8091 0000 		lds r24,debug_config
 262 0042 80FF      		sbrs r24,0
 263 0044 00C0      		rjmp .L23
 264               		.loc 1 184 13 discriminator 1 view .LVU61
 265               	.LBB16:
 266               		.loc 1 184 13 discriminator 1 view .LVU62
 267               		.loc 1 184 13 discriminator 1 view .LVU63
 268               	.LBE16:
 269 0046 80E0      		ldi r24,lo8(__c.1)
 270 0048 90E0      		ldi r25,hi8(__c.1)
 271 004a 0E94 0000 		call xputs
 272               	.LVL15:
 273 004e 00C0      		rjmp .L15
 274               	.LVL16:
 275               	.L16:
 276               		.loc 1 184 13 is_stmt 0 discriminator 1 view .LVU64
 277               	.LBE15:
 169:quantum/split_common/split_util.c ****         return false;
 278               		.loc 1 169 28 discriminator 1 view .LVU65
 279 0050 8091 0000 		lds r24,connection_check_timer.2
 280 0054 9091 0000 		lds r25,connection_check_timer.2+1
 281               	.LVL17:
 169:quantum/split_common/split_util.c ****         return false;
 282               		.loc 1 169 28 discriminator 1 view .LVU66
 283 0058 0E94 0000 		call timer_elapsed
 284               	.LVL18:
 169:quantum/split_common/split_util.c ****         return false;
 285               		.loc 1 169 25 discriminator 1 view .LVU67
 286 005c 843F      		cpi r24,-12
 287 005e 9140      		sbci r25,1
 288 0060 00F4      		brsh .L19
 289               	.LVL19:
 290               	.L23:
 170:quantum/split_common/split_util.c ****     }
 291               		.loc 1 170 16 view .LVU68
 292 0062 C0E0      		ldi r28,0
 293               	.L15:
 185:quantum/split_common/split_util.c ****         }
 186:quantum/split_common/split_util.c ****         return connected;
 187:quantum/split_common/split_util.c ****     } else if (is_disconnected) {
 188:quantum/split_common/split_util.c ****         dprintln("Target connected");
 189:quantum/split_common/split_util.c **** #    endif  // SPLIT_CONNECTION_CHECK_TIMEOUT > 0
 190:quantum/split_common/split_util.c ****     }
 191:quantum/split_common/split_util.c **** 
 192:quantum/split_common/split_util.c ****     connection_errors = 0;
 193:quantum/split_common/split_util.c **** #endif  // SPLIT_MAX_CONNECTION_ERRORS > 0
 194:quantum/split_common/split_util.c ****     return true;
 195:quantum/split_common/split_util.c **** }
 294               		.loc 1 195 1 view .LVU69
 295 0064 8C2F      		mov r24,r28
 296               	/* epilogue start */
 297 0066 DF91      		pop r29
 298 0068 CF91      		pop r28
 299 006a 1F91      		pop r17
 300 006c 0F91      		pop r16
 301 006e FF90      		pop r15
 302               	.LVL20:
 303               		.loc 1 195 1 view .LVU70
 304 0070 0895      		ret
 305               	.LVL21:
 306               	.L21:
 307               	.LBB17:
 178:quantum/split_common/split_util.c ****         }
 308               		.loc 1 178 13 is_stmt 1 view .LVU71
 178:quantum/split_common/split_util.c ****         }
 309               		.loc 1 178 30 is_stmt 0 view .LVU72
 310 0072 8F5F      		subi r24,lo8(-(1))
 311 0074 8093 0000 		sts connection_errors,r24
 181:quantum/split_common/split_util.c ****         if (!connected) {
 312               		.loc 1 181 9 is_stmt 1 view .LVU73
 313               	.LVL22:
 182:quantum/split_common/split_util.c ****             connection_check_timer = timer_read();
 314               		.loc 1 182 9 view .LVU74
 182:quantum/split_common/split_util.c ****             connection_check_timer = timer_read();
 315               		.loc 1 182 12 is_stmt 0 view .LVU75
 316 0078 8A30      		cpi r24,lo8(10)
 317 007a 00F4      		brsh .L24
 186:quantum/split_common/split_util.c ****     } else if (is_disconnected) {
 318               		.loc 1 186 16 view .LVU76
 319 007c C1E0      		ldi r28,lo8(1)
 320               	.LVL23:
 186:quantum/split_common/split_util.c ****     } else if (is_disconnected) {
 321               		.loc 1 186 16 view .LVU77
 322 007e 00C0      		rjmp .L15
 323               	.LVL24:
 324               	.L17:
 186:quantum/split_common/split_util.c ****     } else if (is_disconnected) {
 325               		.loc 1 186 16 view .LVU78
 326               	.LBE17:
 187:quantum/split_common/split_util.c ****         dprintln("Target connected");
 327               		.loc 1 187 12 is_stmt 1 view .LVU79
 187:quantum/split_common/split_util.c ****         dprintln("Target connected");
 328               		.loc 1 187 15 is_stmt 0 view .LVU80
 329 0080 89E0      		ldi r24,lo8(9)
 330               	.LVL25:
 187:quantum/split_common/split_util.c ****         dprintln("Target connected");
 331               		.loc 1 187 15 view .LVU81
 332 0082 8F15      		cp r24,r15
 333 0084 00F4      		brsh .L25
 188:quantum/split_common/split_util.c **** #    endif  // SPLIT_CONNECTION_CHECK_TIMEOUT > 0
 334               		.loc 1 188 9 is_stmt 1 view .LVU82
 188:quantum/split_common/split_util.c **** #    endif  // SPLIT_CONNECTION_CHECK_TIMEOUT > 0
 335               		.loc 1 188 9 view .LVU83
 336 0086 8091 0000 		lds r24,debug_config
 337 008a 80FF      		sbrs r24,0
 338 008c 00C0      		rjmp .L25
 188:quantum/split_common/split_util.c **** #    endif  // SPLIT_CONNECTION_CHECK_TIMEOUT > 0
 339               		.loc 1 188 9 discriminator 1 view .LVU84
 340               	.LBB18:
 188:quantum/split_common/split_util.c **** #    endif  // SPLIT_CONNECTION_CHECK_TIMEOUT > 0
 341               		.loc 1 188 9 discriminator 1 view .LVU85
 188:quantum/split_common/split_util.c **** #    endif  // SPLIT_CONNECTION_CHECK_TIMEOUT > 0
 342               		.loc 1 188 9 discriminator 1 view .LVU86
 343               	.LBE18:
 344 008e 80E0      		ldi r24,lo8(__c.0)
 345 0090 90E0      		ldi r25,hi8(__c.0)
 346 0092 0E94 0000 		call xputs
 347               	.LVL26:
 348               	.L25:
 188:quantum/split_common/split_util.c **** #    endif  // SPLIT_CONNECTION_CHECK_TIMEOUT > 0
 349               		.loc 1 188 9 discriminator 3 view .LVU87
 192:quantum/split_common/split_util.c **** #endif  // SPLIT_MAX_CONNECTION_ERRORS > 0
 350               		.loc 1 192 5 discriminator 3 view .LVU88
 192:quantum/split_common/split_util.c **** #endif  // SPLIT_MAX_CONNECTION_ERRORS > 0
 351               		.loc 1 192 23 is_stmt 0 discriminator 3 view .LVU89
 352 0096 1092 0000 		sts connection_errors,__zero_reg__
 194:quantum/split_common/split_util.c **** }
 353               		.loc 1 194 5 is_stmt 1 discriminator 3 view .LVU90
 194:quantum/split_common/split_util.c **** }
 354               		.loc 1 194 12 is_stmt 0 discriminator 3 view .LVU91
 355 009a 00C0      		rjmp .L15
 356               		.cfi_endproc
 357               	.LFE33:
 359               		.section	.progmem.data.__c.0,"a"
 362               	__c.0:
 363 0000 5461 7267 		.string	"Target connected\r\n"
 363      6574 2063 
 363      6F6E 6E65 
 363      6374 6564 
 363      0D0A 00
 364               		.section	.progmem.data.__c.1,"a"
 367               	__c.1:
 368 0000 5461 7267 		.string	"Target disconnected, throttling connection attempts\r\n"
 368      6574 2064 
 368      6973 636F 
 368      6E6E 6563 
 368      7465 642C 
 369               		.section	.bss.connection_check_timer.2,"aw",@nobits
 372               	connection_check_timer.2:
 373 0000 0000      		.zero	2
 374               		.section	.bss.usbstate.3,"aw",@nobits
 377               	usbstate.3:
 378 0000 00        		.zero	1
 379               	.global	isLeftHand
 380               		.section	.data.isLeftHand,"aw"
 383               	isLeftHand:
 384 0000 01        		.byte	1
 385               		.section	.bss.connection_errors,"aw",@nobits
 388               	connection_errors:
 389 0000 00        		.zero	1
 390               		.text
 391               	.Letext0:
 392               		.file 2 "/usr/avr/include/stdint.h"
 393               		.file 3 "quantum/matrix.h"
 394               		.file 4 "quantum/logging/debug.h"
 395               		.file 5 "quantum/split_common/split_util.h"
 396               		.file 6 "tmk_core/common/avr/gpio.h"
 397               		.file 7 "quantum/split_common/transport.h"
 398               		.file 8 "tmk_core/common/timer.h"
 399               		.file 9 "tmk_core/common/usb_util.h"
 400               		.file 10 "quantum/sequencer/sequencer.h"
 401               		.file 11 "tmk_core/common/avr/xprintf.h"