Archive member included to satisfy reference by file (symbol)

.build/obj_sofle_rev1_default/i2c_master.a(i2c_master.o)
                              .build/obj_sofle_rev1_default/ssd1306_sh1106.o (i2c_init)
.build/obj_sofle_rev1_default/serial.a(serial.o)
                              .build/obj_sofle_rev1_default/quantum/split_common/transport.o (soft_serial_initiator_init)
/usr/lib/gcc/avr/11.2.0/../../../../avr/lib/avr5/libm.a(fixunssfsi.o)
                              .build/obj_sofle_rev1_default/common/host.o (__fixunssfsi)
/usr/lib/gcc/avr/11.2.0/../../../../avr/lib/avr5/libm.a(fp_split3.o)
                              /usr/lib/gcc/avr/11.2.0/../../../../avr/lib/avr5/libm.a(fixunssfsi.o) (__fp_splitA)
/usr/lib/gcc/avr/11.2.0/../../../../avr/lib/avr5/libm.a(fp_zero.o)
                              /usr/lib/gcc/avr/11.2.0/../../../../avr/lib/avr5/libm.a(fixunssfsi.o) (__fp_zero)
/usr/lib/gcc/avr/11.2.0/../../../../avr/lib/avr5/libm.a(mulsf3.o)
                              .build/obj_sofle_rev1_default/common/host.o (__mulsf3)
/usr/lib/gcc/avr/11.2.0/../../../../avr/lib/avr5/libm.a(mulsf3x.o)
                              /usr/lib/gcc/avr/11.2.0/../../../../avr/lib/avr5/libm.a(mulsf3.o) (__mulsf3x)
/usr/lib/gcc/avr/11.2.0/../../../../avr/lib/avr5/libm.a(fp_inf.o)
                              /usr/lib/gcc/avr/11.2.0/../../../../avr/lib/avr5/libm.a(mulsf3x.o) (__fp_inf)
/usr/lib/gcc/avr/11.2.0/../../../../avr/lib/avr5/libm.a(fp_nan.o)
                              /usr/lib/gcc/avr/11.2.0/../../../../avr/lib/avr5/libm.a(mulsf3x.o) (__fp_nan)
/usr/lib/gcc/avr/11.2.0/../../../../avr/lib/avr5/libm.a(fp_pscA.o)
                              /usr/lib/gcc/avr/11.2.0/../../../../avr/lib/avr5/libm.a(mulsf3x.o) (__fp_pscA)
/usr/lib/gcc/avr/11.2.0/../../../../avr/lib/avr5/libm.a(fp_pscB.o)
                              /usr/lib/gcc/avr/11.2.0/../../../../avr/lib/avr5/libm.a(mulsf3x.o) (__fp_pscB)
/usr/lib/gcc/avr/11.2.0/../../../../avr/lib/avr5/libm.a(fp_round.o)
                              /usr/lib/gcc/avr/11.2.0/../../../../avr/lib/avr5/libm.a(mulsf3.o) (__fp_round)
/usr/lib/gcc/avr/11.2.0/avr5/libgcc.a(_udivmodqi4.o)
                              .build/obj_sofle_rev1_default/ssd1306_sh1106.o (__udivmodqi4)
/usr/lib/gcc/avr/11.2.0/avr5/libgcc.a(_udivmodhi4.o)
                              .build/obj_sofle_rev1_default/ssd1306_sh1106.o (__udivmodhi4)
/usr/lib/gcc/avr/11.2.0/avr5/libgcc.a(_divmodhi4.o)
                              .build/obj_sofle_rev1_default/quantum/encoder.o (__divmodhi4)
/usr/lib/gcc/avr/11.2.0/avr5/libgcc.a(_exit.o)
                              /usr/lib/gcc/avr/11.2.0/../../../../avr/lib/avr5/crtatmega32u4.o (exit)
/usr/lib/gcc/avr/11.2.0/avr5/libgcc.a(_tablejump2.o)
                              .build/obj_sofle_rev1_default/keyboards/sofle/keymaps/default/keymap.o (__tablejump2__)
/usr/lib/gcc/avr/11.2.0/avr5/libgcc.a(_copy_data.o)
                              .build/obj_sofle_rev1_default/quantum/action.o (__do_copy_data)
/usr/lib/gcc/avr/11.2.0/avr5/libgcc.a(_clear_bss.o)
                              .build/obj_sofle_rev1_default/quantum/action.o (__do_clear_bss)
/usr/lib/gcc/avr/11.2.0/avr5/libgcc.a(_popcounthi2.o)
                              .build/obj_sofle_rev1_default/quantum/bitwise.o (__popcounthi2)
/usr/lib/gcc/avr/11.2.0/avr5/libgcc.a(_popcountsi2.o)
                              .build/obj_sofle_rev1_default/quantum/bitwise.o (__popcountsi2)
/usr/lib/gcc/avr/11.2.0/avr5/libgcc.a(_popcountqi2.o)
                              /usr/lib/gcc/avr/11.2.0/avr5/libgcc.a(_popcounthi2.o) (__popcountqi2)
/usr/lib/gcc/avr/11.2.0/../../../../avr/lib/avr5/libc.a(memcpy_P.o)
                              .build/obj_sofle_rev1_default/ssd1306_sh1106.o (memcpy_P)
/usr/lib/gcc/avr/11.2.0/../../../../avr/lib/avr5/libc.a(memcmp.o)
                              .build/obj_sofle_rev1_default/quantum/matrix.o (memcmp)
/usr/lib/gcc/avr/11.2.0/../../../../avr/lib/avr5/libc.a(memcpy.o)
                              .build/obj_sofle_rev1_default/quantum/split_common/transport.o (memcpy)
/usr/lib/gcc/avr/11.2.0/../../../../avr/lib/avr5/libc.a(memmove.o)
                              .build/obj_sofle_rev1_default/ssd1306_sh1106.o (memmove)
/usr/lib/gcc/avr/11.2.0/../../../../avr/lib/avr5/libatmega32u4.a(eerd_byte.o)
                              .build/obj_sofle_rev1_default/quantum/eeconfig.o (eeprom_read_byte)
/usr/lib/gcc/avr/11.2.0/../../../../avr/lib/avr5/libatmega32u4.a(eerd_dword.o)
                              .build/obj_sofle_rev1_default/quantum/eeconfig.o (eeprom_read_dword)
/usr/lib/gcc/avr/11.2.0/../../../../avr/lib/avr5/libatmega32u4.a(eerd_word.o)
                              .build/obj_sofle_rev1_default/quantum/eeconfig.o (eeprom_read_word)
/usr/lib/gcc/avr/11.2.0/../../../../avr/lib/avr5/libatmega32u4.a(eeupd_byte.o)
                              .build/obj_sofle_rev1_default/quantum/eeconfig.o (eeprom_update_byte)
/usr/lib/gcc/avr/11.2.0/../../../../avr/lib/avr5/libatmega32u4.a(eeupd_dword.o)
                              .build/obj_sofle_rev1_default/quantum/eeconfig.o (eeprom_update_dword)
/usr/lib/gcc/avr/11.2.0/../../../../avr/lib/avr5/libatmega32u4.a(eeupd_word.o)
                              .build/obj_sofle_rev1_default/quantum/eeconfig.o (eeprom_update_word)
/usr/lib/gcc/avr/11.2.0/../../../../avr/lib/avr5/libatmega32u4.a(eerd_block.o)
                              /usr/lib/gcc/avr/11.2.0/../../../../avr/lib/avr5/libatmega32u4.a(eerd_dword.o) (eeprom_read_blraw)

Allocating common symbols
Common symbol       size              file

USB_IsInitialized   0x1               .build/obj_sofle_rev1_default/lib/lufa/LUFA/Drivers/USB/Core/USBTask.o
keymap_config       0x2               .build/obj_sofle_rev1_default/quantum/bootmagic/magic.o
thatHand            0x1               .build/obj_sofle_rev1_default/quantum/matrix.o
oled_buffer         0x200             .build/obj_sofle_rev1_default/ssd1306_sh1106.o
sync_timer_ms       0x4               .build/obj_sofle_rev1_default/common/sync_timer.o
USB_DeviceState     0x1               .build/obj_sofle_rev1_default/lib/lufa/LUFA/Drivers/USB/Core/USBTask.o
USB_Device_ConfigurationNumber
                    0x1               .build/obj_sofle_rev1_default/lib/lufa/LUFA/Drivers/USB/Core/DeviceStandardReq.o
oled_update_timeout
                    0x2               .build/obj_sofle_rev1_default/ssd1306_sh1106.o
raw_matrix          0xa               .build/obj_sofle_rev1_default/quantum/matrix_common.o
USB_Device_CurrentlySelfPowered
                    0x1               .build/obj_sofle_rev1_default/lib/lufa/LUFA/Drivers/USB/Core/DeviceStandardReq.o
oled_timeout        0x4               .build/obj_sofle_rev1_default/ssd1306_sh1106.o
matrix              0xa               .build/obj_sofle_rev1_default/quantum/matrix_common.o
USB_ControlRequest  0x8               .build/obj_sofle_rev1_default/lib/lufa/LUFA/Drivers/USB/Core/USBTask.o
tp_buttons          0x2               .build/obj_sofle_rev1_default/quantum/action.o
dummy               0x1               .build/obj_sofle_rev1_default/quantum/split_common/transactions.o
USB_Device_RemoteWakeupEnabled
                    0x1               .build/obj_sofle_rev1_default/lib/lufa/LUFA/Drivers/USB/Core/DeviceStandardReq.o
oled_cursor         0x2               .build/obj_sofle_rev1_default/ssd1306_sh1106.o
thisHand            0x1               .build/obj_sofle_rev1_default/quantum/matrix.o
timer_count         0x4               .build/obj_sofle_rev1_default/common/avr/timer.o

Discarded input sections

 .data          0x0000000000000000        0x0 /usr/lib/gcc/avr/11.2.0/../../../../avr/lib/avr5/crtatmega32u4.o
 .bss           0x0000000000000000        0x0 /usr/lib/gcc/avr/11.2.0/../../../../avr/lib/avr5/crtatmega32u4.o
 .text          0x0000000000000000        0x0 .build/obj_sofle_rev1_default/keyboards/sofle/sofle.o
 .data          0x0000000000000000        0x0 .build/obj_sofle_rev1_default/keyboards/sofle/sofle.o
 .bss           0x0000000000000000        0x0 .build/obj_sofle_rev1_default/keyboards/sofle/sofle.o
 .text          0x0000000000000000        0x0 .build/obj_sofle_rev1_default/keyboards/sofle/rev1/rev1.o
 .data          0x0000000000000000        0x0 .build/obj_sofle_rev1_default/keyboards/sofle/rev1/rev1.o
 .bss           0x0000000000000000        0x0 .build/obj_sofle_rev1_default/keyboards/sofle/rev1/rev1.o
 .debug_info    0x0000000000000000       0x64 .build/obj_sofle_rev1_default/keyboards/sofle/rev1/rev1.o
 .debug_abbrev  0x0000000000000000       0x26 .build/obj_sofle_rev1_default/keyboards/sofle/rev1/rev1.o
 .debug_aranges
                0x0000000000000000       0x18 .build/obj_sofle_rev1_default/keyboards/sofle/rev1/rev1.o
 .debug_line    0x0000000000000000       0x1d .build/obj_sofle_rev1_default/keyboards/sofle/rev1/rev1.o
 .debug_str     0x0000000000000000      0x1b5 .build/obj_sofle_rev1_default/keyboards/sofle/rev1/rev1.o
 .comment       0x0000000000000000       0x13 .build/obj_sofle_rev1_default/keyboards/sofle/rev1/rev1.o
 .text          0x0000000000000000        0x0 .build/obj_sofle_rev1_default/keyboards/sofle/keymaps/default/keymap.o
 .data          0x0000000000000000        0x0 .build/obj_sofle_rev1_default/keyboards/sofle/keymaps/default/keymap.o
 .bss           0x0000000000000000        0x0 .build/obj_sofle_rev1_default/keyboards/sofle/keymaps/default/keymap.o
 .text          0x0000000000000000        0x0 .build/obj_sofle_rev1_default/quantum/quantum.o
 .data          0x0000000000000000        0x0 .build/obj_sofle_rev1_default/quantum/quantum.o
 .bss           0x0000000000000000        0x0 .build/obj_sofle_rev1_default/quantum/quantum.o
 .text.extract_mod_bits
                0x0000000000000000       0x54 .build/obj_sofle_rev1_default/quantum/quantum.o
 .text.do_code16
                0x0000000000000000       0x12 .build/obj_sofle_rev1_default/quantum/quantum.o
 .text.register_code16
                0x0000000000000000       0x2a .build/obj_sofle_rev1_default/quantum/quantum.o
 .text.unregister_code16
                0x0000000000000000       0x2a .build/obj_sofle_rev1_default/quantum/quantum.o
 .text.tap_code16
                0x0000000000000000       0x24 .build/obj_sofle_rev1_default/quantum/quantum.o
 .text.process_record_user
                0x0000000000000000        0x4 .build/obj_sofle_rev1_default/quantum/quantum.o
 .text.api_send_unicode
                0x0000000000000000        0x2 .build/obj_sofle_rev1_default/quantum/quantum.o
 .text.startup_user
                0x0000000000000000        0x2 .build/obj_sofle_rev1_default/quantum/quantum.o
 .text          0x0000000000000000        0x0 .build/obj_sofle_rev1_default/quantum/send_string.o
 .data          0x0000000000000000        0x0 .build/obj_sofle_rev1_default/quantum/send_string.o
 .bss           0x0000000000000000        0x0 .build/obj_sofle_rev1_default/quantum/send_string.o
 .text.send_char
                0x0000000000000000       0xcc .build/obj_sofle_rev1_default/quantum/send_string.o
 .text.send_string_with_delay
                0x0000000000000000       0xd4 .build/obj_sofle_rev1_default/quantum/send_string.o
 .text.send_string
                0x0000000000000000        0x6 .build/obj_sofle_rev1_default/quantum/send_string.o
 .text.send_string_with_delay_P
                0x0000000000000000       0xd8 .build/obj_sofle_rev1_default/quantum/send_string.o
 .text.send_string_P
                0x0000000000000000        0x6 .build/obj_sofle_rev1_default/quantum/send_string.o
 .text.send_nibble
                0x0000000000000000       0x14 .build/obj_sofle_rev1_default/quantum/send_string.o
 .text.send_byte
                0x0000000000000000       0x16 .build/obj_sofle_rev1_default/quantum/send_string.o
 .text.send_word
                0x0000000000000000       0x12 .build/obj_sofle_rev1_default/quantum/send_string.o
 .text.send_dword
                0x0000000000000000       0x18 .build/obj_sofle_rev1_default/quantum/send_string.o
 .text.tap_random_base64
                0x0000000000000000       0x52 .build/obj_sofle_rev1_default/quantum/send_string.o
 .progmem.data.ascii_to_keycode_lut
                0x0000000000000000       0x80 .build/obj_sofle_rev1_default/quantum/send_string.o
 .progmem.data.ascii_to_dead_lut
                0x0000000000000000       0x10 .build/obj_sofle_rev1_default/quantum/send_string.o
 .progmem.data.ascii_to_altgr_lut
                0x0000000000000000       0x10 .build/obj_sofle_rev1_default/quantum/send_string.o
 .progmem.data.ascii_to_shift_lut
                0x0000000000000000       0x10 .build/obj_sofle_rev1_default/quantum/send_string.o
 .debug_info    0x0000000000000000      0xf42 .build/obj_sofle_rev1_default/quantum/send_string.o
 .debug_abbrev  0x0000000000000000      0x2c1 .build/obj_sofle_rev1_default/quantum/send_string.o
 .debug_loc     0x0000000000000000      0xf2a .build/obj_sofle_rev1_default/quantum/send_string.o
 .debug_aranges
                0x0000000000000000       0x68 .build/obj_sofle_rev1_default/quantum/send_string.o
 .debug_ranges  0x0000000000000000      0x100 .build/obj_sofle_rev1_default/quantum/send_string.o
 .debug_line    0x0000000000000000      0xb97 .build/obj_sofle_rev1_default/quantum/send_string.o
 .debug_str     0x0000000000000000      0x992 .build/obj_sofle_rev1_default/quantum/send_string.o
 .comment       0x0000000000000000       0x13 .build/obj_sofle_rev1_default/quantum/send_string.o
 .debug_frame   0x0000000000000000      0x134 .build/obj_sofle_rev1_default/quantum/send_string.o
 .text          0x0000000000000000        0x0 .build/obj_sofle_rev1_default/quantum/bitwise.o
 .data          0x0000000000000000        0x0 .build/obj_sofle_rev1_default/quantum/bitwise.o
 .bss           0x0000000000000000        0x0 .build/obj_sofle_rev1_default/quantum/bitwise.o
 .text.bitpop   0x0000000000000000        0x8 .build/obj_sofle_rev1_default/quantum/bitwise.o
 .text.bitpop16
                0x0000000000000000        0x6 .build/obj_sofle_rev1_default/quantum/bitwise.o
 .text.bitpop32
                0x0000000000000000        0x6 .build/obj_sofle_rev1_default/quantum/bitwise.o
 .text.biton    0x0000000000000000       0x20 .build/obj_sofle_rev1_default/quantum/bitwise.o
 .text.biton16  0x0000000000000000       0x48 .build/obj_sofle_rev1_default/quantum/bitwise.o
 .text.biton32  0x0000000000000000       0x96 .build/obj_sofle_rev1_default/quantum/bitwise.o
 .text.bitrev16
                0x0000000000000000       0x1a .build/obj_sofle_rev1_default/quantum/bitwise.o
 .text.bitrev32
                0x0000000000000000       0x58 .build/obj_sofle_rev1_default/quantum/bitwise.o
 .text          0x0000000000000000        0x0 .build/obj_sofle_rev1_default/quantum/led.o
 .data          0x0000000000000000        0x0 .build/obj_sofle_rev1_default/quantum/led.o
 .bss           0x0000000000000000        0x0 .build/obj_sofle_rev1_default/quantum/led.o
 .text          0x0000000000000000        0x0 .build/obj_sofle_rev1_default/quantum/action.o
 .data          0x0000000000000000        0x0 .build/obj_sofle_rev1_default/quantum/action.o
 .bss           0x0000000000000000        0x0 .build/obj_sofle_rev1_default/quantum/action.o
 .text.process_record_quantum
                0x0000000000000000        0x4 .build/obj_sofle_rev1_default/quantum/action.o
 .text.pre_process_record_quantum
                0x0000000000000000        0x4 .build/obj_sofle_rev1_default/quantum/action.o
 .text.post_process_record_quantum
                0x0000000000000000        0x2 .build/obj_sofle_rev1_default/quantum/action.o
 .text.process_record_nocache
                0x0000000000000000       0x10 .build/obj_sofle_rev1_default/quantum/action.o
 .text.register_weak_mods
                0x0000000000000000        0xe .build/obj_sofle_rev1_default/quantum/action.o
 .text.unregister_weak_mods
                0x0000000000000000        0xe .build/obj_sofle_rev1_default/quantum/action.o
 .text.is_tap_key
                0x0000000000000000        0x8 .build/obj_sofle_rev1_default/quantum/action.o
 .text.debug_action
                0x0000000000000000        0x2 .build/obj_sofle_rev1_default/quantum/action.o
 COMMON         0x0000000000000000        0x2 .build/obj_sofle_rev1_default/quantum/action.o
 .text          0x0000000000000000        0x0 .build/obj_sofle_rev1_default/quantum/action_layer.o
 .data          0x0000000000000000        0x0 .build/obj_sofle_rev1_default/quantum/action_layer.o
 .bss           0x0000000000000000        0x0 .build/obj_sofle_rev1_default/quantum/action_layer.o
 .text.layer_state_is
                0x0000000000000000       0x36 .build/obj_sofle_rev1_default/quantum/action_layer.o
 .text.layer_state_cmp
                0x0000000000000000       0x2e .build/obj_sofle_rev1_default/quantum/action_layer.o
 .text          0x0000000000000000        0x0 .build/obj_sofle_rev1_default/quantum/action_macro.o
 .data          0x0000000000000000        0x0 .build/obj_sofle_rev1_default/quantum/action_macro.o
 .bss           0x0000000000000000        0x0 .build/obj_sofle_rev1_default/quantum/action_macro.o
 .debug_info    0x0000000000000000       0x5d .build/obj_sofle_rev1_default/quantum/action_macro.o
 .debug_abbrev  0x0000000000000000       0x26 .build/obj_sofle_rev1_default/quantum/action_macro.o
 .debug_aranges
                0x0000000000000000       0x18 .build/obj_sofle_rev1_default/quantum/action_macro.o
 .debug_line    0x0000000000000000       0x1d .build/obj_sofle_rev1_default/quantum/action_macro.o
 .debug_str     0x0000000000000000      0x1ab .build/obj_sofle_rev1_default/quantum/action_macro.o
 .comment       0x0000000000000000       0x13 .build/obj_sofle_rev1_default/quantum/action_macro.o
 .text          0x0000000000000000        0x0 .build/obj_sofle_rev1_default/quantum/action_tapping.o
 .data          0x0000000000000000        0x0 .build/obj_sofle_rev1_default/quantum/action_tapping.o
 .bss           0x0000000000000000        0x0 .build/obj_sofle_rev1_default/quantum/action_tapping.o
 .text.get_tapping_term
                0x0000000000000000        0x6 .build/obj_sofle_rev1_default/quantum/action_tapping.o
 .text          0x0000000000000000        0x0 .build/obj_sofle_rev1_default/quantum/action_util.o
 .data          0x0000000000000000        0x0 .build/obj_sofle_rev1_default/quantum/action_util.o
 .bss           0x0000000000000000        0x0 .build/obj_sofle_rev1_default/quantum/action_util.o
 .text.get_oneshot_locked_mods
                0x0000000000000000        0x6 .build/obj_sofle_rev1_default/quantum/action_util.o
 .text.has_oneshot_mods_timed_out
                0x0000000000000000        0x4 .build/obj_sofle_rev1_default/quantum/action_util.o
 .text.is_oneshot_enabled
                0x0000000000000000        0xc .build/obj_sofle_rev1_default/quantum/action_util.o
 .text.set_mods
                0x0000000000000000        0x6 .build/obj_sofle_rev1_default/quantum/action_util.o
 .text.get_weak_mods
                0x0000000000000000        0x6 .build/obj_sofle_rev1_default/quantum/action_util.o
 .text.set_weak_mods
                0x0000000000000000        0x6 .build/obj_sofle_rev1_default/quantum/action_util.o
 .text.get_macro_mods
                0x0000000000000000        0x6 .build/obj_sofle_rev1_default/quantum/action_util.o
 .text.add_macro_mods
                0x0000000000000000        0xc .build/obj_sofle_rev1_default/quantum/action_util.o
 .text.del_macro_mods
                0x0000000000000000       0x10 .build/obj_sofle_rev1_default/quantum/action_util.o
 .text.set_macro_mods
                0x0000000000000000        0x6 .build/obj_sofle_rev1_default/quantum/action_util.o
 .text.oneshot_locked_mods_changed_user
                0x0000000000000000        0x2 .build/obj_sofle_rev1_default/quantum/action_util.o
 .text.oneshot_locked_mods_changed_kb
                0x0000000000000000        0x4 .build/obj_sofle_rev1_default/quantum/action_util.o
 .text.set_oneshot_locked_mods
                0x0000000000000000       0x12 .build/obj_sofle_rev1_default/quantum/action_util.o
 .text.clear_oneshot_locked_mods
                0x0000000000000000       0x14 .build/obj_sofle_rev1_default/quantum/action_util.o
 .text.add_oneshot_mods
                0x0000000000000000       0x18 .build/obj_sofle_rev1_default/quantum/action_util.o
 .text.del_oneshot_mods
                0x0000000000000000       0x18 .build/obj_sofle_rev1_default/quantum/action_util.o
 .text.has_anymod
                0x0000000000000000        0x8 .build/obj_sofle_rev1_default/quantum/action_util.o
 .bss.oneshot_locked_mods
                0x0000000000000000        0x1 .build/obj_sofle_rev1_default/quantum/action_util.o
 .text          0x0000000000000000        0x0 .build/obj_sofle_rev1_default/quantum/eeconfig.o
 .data          0x0000000000000000        0x0 .build/obj_sofle_rev1_default/quantum/eeconfig.o
 .bss           0x0000000000000000        0x0 .build/obj_sofle_rev1_default/quantum/eeconfig.o
 .text.eeconfig_enable
                0x0000000000000000        0xc .build/obj_sofle_rev1_default/quantum/eeconfig.o
 .text.eeconfig_disable
                0x0000000000000000        0xc .build/obj_sofle_rev1_default/quantum/eeconfig.o
 .text.eeconfig_is_disabled
                0x0000000000000000       0x16 .build/obj_sofle_rev1_default/quantum/eeconfig.o
 .text.eeconfig_update_debug
                0x0000000000000000        0xa .build/obj_sofle_rev1_default/quantum/eeconfig.o
 .text.eeconfig_read_audio
                0x0000000000000000        0x8 .build/obj_sofle_rev1_default/quantum/eeconfig.o
 .text.eeconfig_update_audio
                0x0000000000000000        0xa .build/obj_sofle_rev1_default/quantum/eeconfig.o
 .text.eeconfig_read_kb
                0x0000000000000000        0x8 .build/obj_sofle_rev1_default/quantum/eeconfig.o
 .text.eeconfig_read_user
                0x0000000000000000        0x8 .build/obj_sofle_rev1_default/quantum/eeconfig.o
 .text.eeconfig_read_haptic
                0x0000000000000000        0x8 .build/obj_sofle_rev1_default/quantum/eeconfig.o
 .text.eeconfig_update_haptic
                0x0000000000000000        0xc .build/obj_sofle_rev1_default/quantum/eeconfig.o
 .text.eeconfig_read_handedness
                0x0000000000000000       0x14 .build/obj_sofle_rev1_default/quantum/eeconfig.o
 .text          0x0000000000000000        0x0 .build/obj_sofle_rev1_default/quantum/keyboard.o
 .data          0x0000000000000000        0x0 .build/obj_sofle_rev1_default/quantum/keyboard.o
 .bss           0x0000000000000000        0x0 .build/obj_sofle_rev1_default/quantum/keyboard.o
 .text.last_input_activity_time
                0x0000000000000000       0x2e .build/obj_sofle_rev1_default/quantum/keyboard.o
 .text.last_input_activity_elapsed
                0x0000000000000000       0x38 .build/obj_sofle_rev1_default/quantum/keyboard.o
 .text.last_matrix_activity_time
                0x0000000000000000       0x2e .build/obj_sofle_rev1_default/quantum/keyboard.o
 .text.last_matrix_activity_elapsed
                0x0000000000000000       0x38 .build/obj_sofle_rev1_default/quantum/keyboard.o
 .text.last_encoder_activity_time
                0x0000000000000000       0x2e .build/obj_sofle_rev1_default/quantum/keyboard.o
 .text.last_encoder_activity_elapsed
                0x0000000000000000       0x38 .build/obj_sofle_rev1_default/quantum/keyboard.o
 .text.switch_events
                0x0000000000000000        0x2 .build/obj_sofle_rev1_default/quantum/keyboard.o
 .text          0x0000000000000000        0x0 .build/obj_sofle_rev1_default/quantum/keymap_common.o
 .data          0x0000000000000000        0x0 .build/obj_sofle_rev1_default/quantum/keymap_common.o
 .bss           0x0000000000000000        0x0 .build/obj_sofle_rev1_default/quantum/keymap_common.o
 .text.action_get_macro
                0x0000000000000000        0x6 .build/obj_sofle_rev1_default/quantum/keymap_common.o
 .text.action_function
                0x0000000000000000        0x2 .build/obj_sofle_rev1_default/quantum/keymap_common.o
 .text.keymap_function_id_to_action
                0x0000000000000000       0x10 .build/obj_sofle_rev1_default/quantum/keymap_common.o
 .progmem.data.fn_actions
                0x0000000000000000        0x0 .build/obj_sofle_rev1_default/quantum/keymap_common.o
 .text          0x0000000000000000        0x0 .build/obj_sofle_rev1_default/quantum/keycode_config.o
 .data          0x0000000000000000        0x0 .build/obj_sofle_rev1_default/quantum/keycode_config.o
 .bss           0x0000000000000000        0x0 .build/obj_sofle_rev1_default/quantum/keycode_config.o
 .text          0x0000000000000000        0x0 .build/obj_sofle_rev1_default/quantum/logging/debug.o
 .data          0x0000000000000000        0x0 .build/obj_sofle_rev1_default/quantum/logging/debug.o
 .bss           0x0000000000000000        0x0 .build/obj_sofle_rev1_default/quantum/logging/debug.o
 .text          0x0000000000000000        0x0 .build/obj_sofle_rev1_default/quantum/logging/sendchar.o
 .data          0x0000000000000000        0x0 .build/obj_sofle_rev1_default/quantum/logging/sendchar.o
 .bss           0x0000000000000000        0x0 .build/obj_sofle_rev1_default/quantum/logging/sendchar.o
 .text.sendchar
                0x0000000000000000        0x4 .build/obj_sofle_rev1_default/quantum/logging/sendchar.o
 .debug_info    0x0000000000000000       0xa8 .build/obj_sofle_rev1_default/quantum/logging/sendchar.o
 .debug_abbrev  0x0000000000000000       0x6b .build/obj_sofle_rev1_default/quantum/logging/sendchar.o
 .debug_loc     0x0000000000000000       0x25 .build/obj_sofle_rev1_default/quantum/logging/sendchar.o
 .debug_aranges
                0x0000000000000000       0x20 .build/obj_sofle_rev1_default/quantum/logging/sendchar.o
 .debug_ranges  0x0000000000000000       0x10 .build/obj_sofle_rev1_default/quantum/logging/sendchar.o
 .debug_line    0x0000000000000000       0x81 .build/obj_sofle_rev1_default/quantum/logging/sendchar.o
 .debug_str     0x0000000000000000      0x1c1 .build/obj_sofle_rev1_default/quantum/logging/sendchar.o
 .comment       0x0000000000000000       0x13 .build/obj_sofle_rev1_default/quantum/logging/sendchar.o
 .debug_frame   0x0000000000000000       0x24 .build/obj_sofle_rev1_default/quantum/logging/sendchar.o
 .text          0x0000000000000000        0x0 .build/obj_sofle_rev1_default/quantum/bootmagic/magic.o
 .data          0x0000000000000000        0x0 .build/obj_sofle_rev1_default/quantum/bootmagic/magic.o
 .bss           0x0000000000000000        0x0 .build/obj_sofle_rev1_default/quantum/bootmagic/magic.o
 .text          0x0000000000000000        0x0 .build/obj_sofle_rev1_default/quantum/matrix_common.o
 .data          0x0000000000000000        0x0 .build/obj_sofle_rev1_default/quantum/matrix_common.o
 .bss           0x0000000000000000        0x0 .build/obj_sofle_rev1_default/quantum/matrix_common.o
 .text.matrix_rows
                0x0000000000000000        0x4 .build/obj_sofle_rev1_default/quantum/matrix_common.o
 .text.matrix_cols
                0x0000000000000000        0x4 .build/obj_sofle_rev1_default/quantum/matrix_common.o
 .text.matrix_is_on
                0x0000000000000000       0x28 .build/obj_sofle_rev1_default/quantum/matrix_common.o
 .text.matrix_is_modified
                0x0000000000000000        0xa .build/obj_sofle_rev1_default/quantum/matrix_common.o
 .text.matrix_key_count
                0x0000000000000000       0x2a .build/obj_sofle_rev1_default/quantum/matrix_common.o
 .text.matrix_init_custom
                0x0000000000000000        0x2 .build/obj_sofle_rev1_default/quantum/matrix_common.o
 .text.matrix_scan_custom
                0x0000000000000000        0x4 .build/obj_sofle_rev1_default/quantum/matrix_common.o
 .text.matrix_init
                0x0000000000000000       0x2a .build/obj_sofle_rev1_default/quantum/matrix_common.o
 .text.matrix_scan
                0x0000000000000000       0x26 .build/obj_sofle_rev1_default/quantum/matrix_common.o
 .text.peek_matrix
                0x0000000000000000       0x24 .build/obj_sofle_rev1_default/quantum/matrix_common.o
 .text          0x0000000000000000        0x0 .build/obj_sofle_rev1_default/quantum/matrix.o
 .data          0x0000000000000000        0x0 .build/obj_sofle_rev1_default/quantum/matrix.o
 .bss           0x0000000000000000        0x0 .build/obj_sofle_rev1_default/quantum/matrix.o
 .text.transport_master_if_connected
                0x0000000000000000        0x8 .build/obj_sofle_rev1_default/quantum/matrix.o
 .text          0x0000000000000000        0x0 .build/obj_sofle_rev1_default/quantum/debounce/sym_defer_g.o
 .data          0x0000000000000000        0x0 .build/obj_sofle_rev1_default/quantum/debounce/sym_defer_g.o
 .bss           0x0000000000000000        0x0 .build/obj_sofle_rev1_default/quantum/debounce/sym_defer_g.o
 .text.debounce_active
                0x0000000000000000        0x6 .build/obj_sofle_rev1_default/quantum/debounce/sym_defer_g.o
 .text.debounce_free
                0x0000000000000000        0x2 .build/obj_sofle_rev1_default/quantum/debounce/sym_defer_g.o
 .text          0x0000000000000000        0x0 .build/obj_sofle_rev1_default/quantum/split_common/split_util.o
 .data          0x0000000000000000        0x0 .build/obj_sofle_rev1_default/quantum/split_common/split_util.o
 .bss           0x0000000000000000        0x0 .build/obj_sofle_rev1_default/quantum/split_common/split_util.o
 .text          0x0000000000000000        0x0 .build/obj_sofle_rev1_default/quantum/split_common/transport.o
 .data          0x0000000000000000        0x0 .build/obj_sofle_rev1_default/quantum/split_common/transport.o
 .bss           0x0000000000000000        0x0 .build/obj_sofle_rev1_default/quantum/split_common/transport.o
 .text          0x0000000000000000        0x0 .build/obj_sofle_rev1_default/quantum/split_common/transactions.o
 .data          0x0000000000000000        0x0 .build/obj_sofle_rev1_default/quantum/split_common/transactions.o
 .bss           0x0000000000000000        0x0 .build/obj_sofle_rev1_default/quantum/split_common/transactions.o
 .text          0x0000000000000000        0x0 .build/obj_sofle_rev1_default/quantum/main.o
 .data          0x0000000000000000        0x0 .build/obj_sofle_rev1_default/quantum/main.o
 .bss           0x0000000000000000        0x0 .build/obj_sofle_rev1_default/quantum/main.o
 .text          0x0000000000000000        0x0 .build/obj_sofle_rev1_default/quantum/encoder.o
 .data          0x0000000000000000        0x0 .build/obj_sofle_rev1_default/quantum/encoder.o
 .bss           0x0000000000000000        0x0 .build/obj_sofle_rev1_default/quantum/encoder.o
 .text.encoder_update_user
                0x0000000000000000        0x4 .build/obj_sofle_rev1_default/quantum/encoder.o
 .text          0x0000000000000000        0x0 .build/obj_sofle_rev1_default/crc.o
 .data          0x0000000000000000        0x0 .build/obj_sofle_rev1_default/crc.o
 .bss           0x0000000000000000        0x0 .build/obj_sofle_rev1_default/crc.o
 .text          0x0000000000000000        0x0 .build/obj_sofle_rev1_default/ssd1306_sh1106.o
 .data          0x0000000000000000        0x0 .build/obj_sofle_rev1_default/ssd1306_sh1106.o
 .bss           0x0000000000000000        0x0 .build/obj_sofle_rev1_default/ssd1306_sh1106.o
 .text.crot     0x0000000000000000       0x2a .build/obj_sofle_rev1_default/ssd1306_sh1106.o
 .text.oled_write
                0x0000000000000000       0x38 .build/obj_sofle_rev1_default/ssd1306_sh1106.o
 .text.oled_write_ln
                0x0000000000000000        0xa .build/obj_sofle_rev1_default/ssd1306_sh1106.o
 .text.oled_pan
                0x0000000000000000       0x50 .build/obj_sofle_rev1_default/ssd1306_sh1106.o
 .text.oled_read_raw
                0x0000000000000000       0x46 .build/obj_sofle_rev1_default/ssd1306_sh1106.o
 .text.oled_write_raw_byte
                0x0000000000000000       0x4c .build/obj_sofle_rev1_default/ssd1306_sh1106.o
 .text.oled_write_raw
                0x0000000000000000       0x78 .build/obj_sofle_rev1_default/ssd1306_sh1106.o
 .text.oled_write_pixel
                0x0000000000000000       0x78 .build/obj_sofle_rev1_default/ssd1306_sh1106.o
 .text.oled_write_ln_P
                0x0000000000000000        0xa .build/obj_sofle_rev1_default/ssd1306_sh1106.o
 .text.oled_write_raw_P
                0x0000000000000000       0x86 .build/obj_sofle_rev1_default/ssd1306_sh1106.o
 .text.is_oled_on
                0x0000000000000000        0x6 .build/obj_sofle_rev1_default/ssd1306_sh1106.o
 .text.oled_set_brightness
                0x0000000000000000       0x60 .build/obj_sofle_rev1_default/ssd1306_sh1106.o
 .text.oled_get_brightness
                0x0000000000000000        0x6 .build/obj_sofle_rev1_default/ssd1306_sh1106.o
 .text.oled_scroll_set_area
                0x0000000000000000        0xa .build/obj_sofle_rev1_default/ssd1306_sh1106.o
 .text.oled_scroll_set_speed
                0x0000000000000000       0x10 .build/obj_sofle_rev1_default/ssd1306_sh1106.o
 .text.oled_scroll_right
                0x0000000000000000       0x92 .build/obj_sofle_rev1_default/ssd1306_sh1106.o
 .text.oled_scroll_off
                0x0000000000000000       0x4a .build/obj_sofle_rev1_default/ssd1306_sh1106.o
 .text.is_oled_scrolling
                0x0000000000000000        0x6 .build/obj_sofle_rev1_default/ssd1306_sh1106.o
 .text.oled_invert
                0x0000000000000000       0x5c .build/obj_sofle_rev1_default/ssd1306_sh1106.o
 .text.oled_max_chars
                0x0000000000000000       0x10 .build/obj_sofle_rev1_default/ssd1306_sh1106.o
 .text.oled_max_lines
                0x0000000000000000       0x10 .build/obj_sofle_rev1_default/ssd1306_sh1106.o
 .text.oled_task_user
                0x0000000000000000        0x2 .build/obj_sofle_rev1_default/ssd1306_sh1106.o
 .progmem.data.__c.0
                0x0000000000000000       0x18 .build/obj_sofle_rev1_default/ssd1306_sh1106.o
 .progmem.data.display_normal.1
                0x0000000000000000        0x2 .build/obj_sofle_rev1_default/ssd1306_sh1106.o
 .progmem.data.__c.2
                0x0000000000000000       0x18 .build/obj_sofle_rev1_default/ssd1306_sh1106.o
 .progmem.data.display_inverted.3
                0x0000000000000000        0x2 .build/obj_sofle_rev1_default/ssd1306_sh1106.o
 .progmem.data.__c.4
                0x0000000000000000       0x1c .build/obj_sofle_rev1_default/ssd1306_sh1106.o
 .progmem.data.display_scroll_off.5
                0x0000000000000000        0x2 .build/obj_sofle_rev1_default/ssd1306_sh1106.o
 .progmem.data.__c.7
                0x0000000000000000       0x1e .build/obj_sofle_rev1_default/ssd1306_sh1106.o
 .rodata.scroll_remap.8
                0x0000000000000000        0x8 .build/obj_sofle_rev1_default/ssd1306_sh1106.o
 .progmem.data.__c.9
                0x0000000000000000       0x1b .build/obj_sofle_rev1_default/ssd1306_sh1106.o
 .data.oled_brightness
                0x0000000000000000        0x1 .build/obj_sofle_rev1_default/ssd1306_sh1106.o
 .bss.oled_inverted
                0x0000000000000000        0x1 .build/obj_sofle_rev1_default/ssd1306_sh1106.o
 .text          0x0000000000000000        0x0 .build/obj_sofle_rev1_default/quantum/process_keycode/process_space_cadet.o
 .data          0x0000000000000000        0x0 .build/obj_sofle_rev1_default/quantum/process_keycode/process_space_cadet.o
 .bss           0x0000000000000000        0x0 .build/obj_sofle_rev1_default/quantum/process_keycode/process_space_cadet.o
 .text          0x0000000000000000        0x0 .build/obj_sofle_rev1_default/quantum/process_keycode/process_magic.o
 .data          0x0000000000000000        0x0 .build/obj_sofle_rev1_default/quantum/process_keycode/process_magic.o
 .bss           0x0000000000000000        0x0 .build/obj_sofle_rev1_default/quantum/process_keycode/process_magic.o
 .text          0x0000000000000000        0x0 .build/obj_sofle_rev1_default/quantum/process_keycode/process_grave_esc.o
 .data          0x0000000000000000        0x0 .build/obj_sofle_rev1_default/quantum/process_keycode/process_grave_esc.o
 .bss           0x0000000000000000        0x0 .build/obj_sofle_rev1_default/quantum/process_keycode/process_grave_esc.o
 .text          0x0000000000000000        0x0 .build/obj_sofle_rev1_default/i2c_master.a(i2c_master.o)
 .data          0x0000000000000000        0x0 .build/obj_sofle_rev1_default/i2c_master.a(i2c_master.o)
 .bss           0x0000000000000000        0x0 .build/obj_sofle_rev1_default/i2c_master.a(i2c_master.o)
 .text.i2c_read_ack
                0x0000000000000000       0x48 .build/obj_sofle_rev1_default/i2c_master.a(i2c_master.o)
 .text.i2c_read_nack
                0x0000000000000000       0x48 .build/obj_sofle_rev1_default/i2c_master.a(i2c_master.o)
 .text.i2c_receive
                0x0000000000000000       0x8c .build/obj_sofle_rev1_default/i2c_master.a(i2c_master.o)
 .text.i2c_readReg
                0x0000000000000000       0xaa .build/obj_sofle_rev1_default/i2c_master.a(i2c_master.o)
 .text          0x0000000000000000        0x0 .build/obj_sofle_rev1_default/serial.a(serial.o)
 .data          0x0000000000000000        0x0 .build/obj_sofle_rev1_default/serial.a(serial.o)
 .bss           0x0000000000000000        0x0 .build/obj_sofle_rev1_default/serial.a(serial.o)
 .text.soft_serial_get_and_clean_status
                0x0000000000000000       0x24 .build/obj_sofle_rev1_default/serial.a(serial.o)
 .text          0x0000000000000000        0x0 .build/obj_sofle_rev1_default/common/host.o
 .data          0x0000000000000000        0x0 .build/obj_sofle_rev1_default/common/host.o
 .bss           0x0000000000000000        0x0 .build/obj_sofle_rev1_default/common/host.o
 .text.host_get_driver
                0x0000000000000000        0xa .build/obj_sofle_rev1_default/common/host.o
 .text.set_split_host_keyboard_leds
                0x0000000000000000        0x6 .build/obj_sofle_rev1_default/common/host.o
 .text.host_keyboard_led_state
                0x0000000000000000        0x6 .build/obj_sofle_rev1_default/common/host.o
 .text.host_mouse_send
                0x0000000000000000       0x16 .build/obj_sofle_rev1_default/common/host.o
 .text.send_digitizer
                0x0000000000000000        0x2 .build/obj_sofle_rev1_default/common/host.o
 .text.host_digitizer_send
                0x0000000000000000       0xae .build/obj_sofle_rev1_default/common/host.o
 .text.host_last_system_report
                0x0000000000000000        0xa .build/obj_sofle_rev1_default/common/host.o
 .text.host_last_consumer_report
                0x0000000000000000        0xa .build/obj_sofle_rev1_default/common/host.o
 .text          0x0000000000000000        0x0 .build/obj_sofle_rev1_default/common/report.o
 .data          0x0000000000000000        0x0 .build/obj_sofle_rev1_default/common/report.o
 .bss           0x0000000000000000        0x0 .build/obj_sofle_rev1_default/common/report.o
 .text.get_first_key
                0x0000000000000000        0x6 .build/obj_sofle_rev1_default/common/report.o
 .text          0x0000000000000000        0x0 .build/obj_sofle_rev1_default/common/sync_timer.o
 .data          0x0000000000000000        0x0 .build/obj_sofle_rev1_default/common/sync_timer.o
 .bss           0x0000000000000000        0x0 .build/obj_sofle_rev1_default/common/sync_timer.o
 .text.sync_timer_read
                0x0000000000000000       0x12 .build/obj_sofle_rev1_default/common/sync_timer.o
 .text.sync_timer_elapsed
                0x0000000000000000       0x26 .build/obj_sofle_rev1_default/common/sync_timer.o
 .text.sync_timer_elapsed32
                0x0000000000000000       0x6e .build/obj_sofle_rev1_default/common/sync_timer.o
 .text          0x0000000000000000        0x0 .build/obj_sofle_rev1_default/common/usb_util.o
 .data          0x0000000000000000        0x0 .build/obj_sofle_rev1_default/common/usb_util.o
 .bss           0x0000000000000000        0x0 .build/obj_sofle_rev1_default/common/usb_util.o
 .text.usb_disconnect
                0x0000000000000000        0x2 .build/obj_sofle_rev1_default/common/usb_util.o
 .text.usb_connected_state
                0x0000000000000000        0x4 .build/obj_sofle_rev1_default/common/usb_util.o
 .text.usb_vbus_state
                0x0000000000000000        0x4 .build/obj_sofle_rev1_default/common/usb_util.o
 .debug_info    0x0000000000000000       0xb6 .build/obj_sofle_rev1_default/common/usb_util.o
 .debug_abbrev  0x0000000000000000       0x7e .build/obj_sofle_rev1_default/common/usb_util.o
 .debug_aranges
                0x0000000000000000       0x28 .build/obj_sofle_rev1_default/common/usb_util.o
 .debug_ranges  0x0000000000000000       0x18 .build/obj_sofle_rev1_default/common/usb_util.o
 .debug_line    0x0000000000000000       0x78 .build/obj_sofle_rev1_default/common/usb_util.o
 .debug_str     0x0000000000000000      0x1e6 .build/obj_sofle_rev1_default/common/usb_util.o
 .comment       0x0000000000000000       0x13 .build/obj_sofle_rev1_default/common/usb_util.o
 .debug_frame   0x0000000000000000       0x44 .build/obj_sofle_rev1_default/common/usb_util.o
 .text          0x0000000000000000        0x0 .build/obj_sofle_rev1_default/common/avr/platform.o
 .data          0x0000000000000000        0x0 .build/obj_sofle_rev1_default/common/avr/platform.o
 .bss           0x0000000000000000        0x0 .build/obj_sofle_rev1_default/common/avr/platform.o
 .text          0x0000000000000000        0x0 .build/obj_sofle_rev1_default/common/avr/suspend.o
 .data          0x0000000000000000        0x0 .build/obj_sofle_rev1_default/common/avr/suspend.o
 .bss           0x0000000000000000        0x0 .build/obj_sofle_rev1_default/common/avr/suspend.o
 .text.suspend_idle
                0x0000000000000000       0x1a .build/obj_sofle_rev1_default/common/avr/suspend.o
 .text          0x0000000000000000        0x0 .build/obj_sofle_rev1_default/common/avr/timer.o
 .data          0x0000000000000000        0x0 .build/obj_sofle_rev1_default/common/avr/timer.o
 .bss           0x0000000000000000        0x0 .build/obj_sofle_rev1_default/common/avr/timer.o
 .text.timer_clear
                0x0000000000000000       0x18 .build/obj_sofle_rev1_default/common/avr/timer.o
 .text          0x0000000000000000        0x0 .build/obj_sofle_rev1_default/common/avr/bootloader.o
 .data          0x0000000000000000        0x0 .build/obj_sofle_rev1_default/common/avr/bootloader.o
 .bss           0x0000000000000000        0x0 .build/obj_sofle_rev1_default/common/avr/bootloader.o
 .data          0x0000000000000000        0x0 .build/obj_sofle_rev1_default/common/avr/xprintf.o
 .text          0x0000000000000000        0x0 .build/obj_sofle_rev1_default/common/avr/printf.o
 .data          0x0000000000000000        0x0 .build/obj_sofle_rev1_default/common/avr/printf.o
 .bss           0x0000000000000000        0x0 .build/obj_sofle_rev1_default/common/avr/printf.o
 .text          0x0000000000000000        0x0 .build/obj_sofle_rev1_default/lufa.o
 .data          0x0000000000000000        0x0 .build/obj_sofle_rev1_default/lufa.o
 .bss           0x0000000000000000        0x0 .build/obj_sofle_rev1_default/lufa.o
 .text.send_digitizer
                0x0000000000000000        0x2 .build/obj_sofle_rev1_default/lufa.o
 .text          0x0000000000000000        0x0 .build/obj_sofle_rev1_default/usb_descriptor.o
 .data          0x0000000000000000        0x0 .build/obj_sofle_rev1_default/usb_descriptor.o
 .bss           0x0000000000000000        0x0 .build/obj_sofle_rev1_default/usb_descriptor.o
 .text          0x0000000000000000        0x0 .build/obj_sofle_rev1_default/lib/lufa/LUFA/Drivers/USB/Class/Common/HIDParser.o
 .data          0x0000000000000000        0x0 .build/obj_sofle_rev1_default/lib/lufa/LUFA/Drivers/USB/Class/Common/HIDParser.o
 .bss           0x0000000000000000        0x0 .build/obj_sofle_rev1_default/lib/lufa/LUFA/Drivers/USB/Class/Common/HIDParser.o
 .text.USB_ProcessHIDReport
                0x0000000000000000      0x6e0 .build/obj_sofle_rev1_default/lib/lufa/LUFA/Drivers/USB/Class/Common/HIDParser.o
 .text.USB_GetHIDReportItemInfo
                0x0000000000000000       0xb6 .build/obj_sofle_rev1_default/lib/lufa/LUFA/Drivers/USB/Class/Common/HIDParser.o
 .text.USB_SetHIDReportItemInfo
                0x0000000000000000       0xb8 .build/obj_sofle_rev1_default/lib/lufa/LUFA/Drivers/USB/Class/Common/HIDParser.o
 .text.USB_GetHIDReportSize
                0x0000000000000000       0x68 .build/obj_sofle_rev1_default/lib/lufa/LUFA/Drivers/USB/Class/Common/HIDParser.o
 .debug_info    0x0000000000000000      0x8a7 .build/obj_sofle_rev1_default/lib/lufa/LUFA/Drivers/USB/Class/Common/HIDParser.o
 .debug_abbrev  0x0000000000000000      0x2a8 .build/obj_sofle_rev1_default/lib/lufa/LUFA/Drivers/USB/Class/Common/HIDParser.o
 .debug_loc     0x0000000000000000      0xbff .build/obj_sofle_rev1_default/lib/lufa/LUFA/Drivers/USB/Class/Common/HIDParser.o
 .debug_aranges
                0x0000000000000000       0x38 .build/obj_sofle_rev1_default/lib/lufa/LUFA/Drivers/USB/Class/Common/HIDParser.o
 .debug_ranges  0x0000000000000000       0xf8 .build/obj_sofle_rev1_default/lib/lufa/LUFA/Drivers/USB/Class/Common/HIDParser.o
 .debug_line    0x0000000000000000      0xd7b .build/obj_sofle_rev1_default/lib/lufa/LUFA/Drivers/USB/Class/Common/HIDParser.o
 .debug_str     0x0000000000000000      0x702 .build/obj_sofle_rev1_default/lib/lufa/LUFA/Drivers/USB/Class/Common/HIDParser.o
 .comment       0x0000000000000000       0x13 .build/obj_sofle_rev1_default/lib/lufa/LUFA/Drivers/USB/Class/Common/HIDParser.o
 .debug_frame   0x0000000000000000      0x10c .build/obj_sofle_rev1_default/lib/lufa/LUFA/Drivers/USB/Class/Common/HIDParser.o
 .text          0x0000000000000000        0x0 .build/obj_sofle_rev1_default/lib/lufa/LUFA/Drivers/USB/Core/AVR8/Device_AVR8.o
 .data          0x0000000000000000        0x0 .build/obj_sofle_rev1_default/lib/lufa/LUFA/Drivers/USB/Core/AVR8/Device_AVR8.o
 .bss           0x0000000000000000        0x0 .build/obj_sofle_rev1_default/lib/lufa/LUFA/Drivers/USB/Core/AVR8/Device_AVR8.o
 .text          0x0000000000000000        0x0 .build/obj_sofle_rev1_default/lib/lufa/LUFA/Drivers/USB/Core/AVR8/EndpointStream_AVR8.o
 .data          0x0000000000000000        0x0 .build/obj_sofle_rev1_default/lib/lufa/LUFA/Drivers/USB/Core/AVR8/EndpointStream_AVR8.o
 .bss           0x0000000000000000        0x0 .build/obj_sofle_rev1_default/lib/lufa/LUFA/Drivers/USB/Core/AVR8/EndpointStream_AVR8.o
 .text.Endpoint_Discard_Stream
                0x0000000000000000       0x7c .build/obj_sofle_rev1_default/lib/lufa/LUFA/Drivers/USB/Core/AVR8/EndpointStream_AVR8.o
 .text.Endpoint_Null_Stream
                0x0000000000000000       0x7c .build/obj_sofle_rev1_default/lib/lufa/LUFA/Drivers/USB/Core/AVR8/EndpointStream_AVR8.o
 .text.Endpoint_Write_Stream_BE
                0x0000000000000000       0xa8 .build/obj_sofle_rev1_default/lib/lufa/LUFA/Drivers/USB/Core/AVR8/EndpointStream_AVR8.o
 .text.Endpoint_Read_Stream_LE
                0x0000000000000000       0x9e .build/obj_sofle_rev1_default/lib/lufa/LUFA/Drivers/USB/Core/AVR8/EndpointStream_AVR8.o
 .text.Endpoint_Read_Stream_BE
                0x0000000000000000       0xa8 .build/obj_sofle_rev1_default/lib/lufa/LUFA/Drivers/USB/Core/AVR8/EndpointStream_AVR8.o
 .text.Endpoint_Write_PStream_LE
                0x0000000000000000       0xa0 .build/obj_sofle_rev1_default/lib/lufa/LUFA/Drivers/USB/Core/AVR8/EndpointStream_AVR8.o
 .text.Endpoint_Write_PStream_BE
                0x0000000000000000       0xaa .build/obj_sofle_rev1_default/lib/lufa/LUFA/Drivers/USB/Core/AVR8/EndpointStream_AVR8.o
 .text.Endpoint_Write_EStream_LE
                0x0000000000000000       0xa2 .build/obj_sofle_rev1_default/lib/lufa/LUFA/Drivers/USB/Core/AVR8/EndpointStream_AVR8.o
 .text.Endpoint_Write_EStream_BE
                0x0000000000000000       0xac .build/obj_sofle_rev1_default/lib/lufa/LUFA/Drivers/USB/Core/AVR8/EndpointStream_AVR8.o
 .text.Endpoint_Read_EStream_LE
                0x0000000000000000       0xa2 .build/obj_sofle_rev1_default/lib/lufa/LUFA/Drivers/USB/Core/AVR8/EndpointStream_AVR8.o
 .text.Endpoint_Read_EStream_BE
                0x0000000000000000       0xac .build/obj_sofle_rev1_default/lib/lufa/LUFA/Drivers/USB/Core/AVR8/EndpointStream_AVR8.o
 .text.Endpoint_Write_Control_Stream_BE
                0x0000000000000000       0xc4 .build/obj_sofle_rev1_default/lib/lufa/LUFA/Drivers/USB/Core/AVR8/EndpointStream_AVR8.o
 .text.Endpoint_Read_Control_Stream_LE
                0x0000000000000000       0x6e .build/obj_sofle_rev1_default/lib/lufa/LUFA/Drivers/USB/Core/AVR8/EndpointStream_AVR8.o
 .text.Endpoint_Read_Control_Stream_BE
                0x0000000000000000       0x7a .build/obj_sofle_rev1_default/lib/lufa/LUFA/Drivers/USB/Core/AVR8/EndpointStream_AVR8.o
 .text.Endpoint_Write_Control_PStream_BE
                0x0000000000000000       0xc4 .build/obj_sofle_rev1_default/lib/lufa/LUFA/Drivers/USB/Core/AVR8/EndpointStream_AVR8.o
 .text.Endpoint_Write_Control_EStream_LE
                0x0000000000000000       0xd8 .build/obj_sofle_rev1_default/lib/lufa/LUFA/Drivers/USB/Core/AVR8/EndpointStream_AVR8.o
 .text.Endpoint_Write_Control_EStream_BE
                0x0000000000000000       0xe2 .build/obj_sofle_rev1_default/lib/lufa/LUFA/Drivers/USB/Core/AVR8/EndpointStream_AVR8.o
 .text.Endpoint_Read_Control_EStream_LE
                0x0000000000000000       0x86 .build/obj_sofle_rev1_default/lib/lufa/LUFA/Drivers/USB/Core/AVR8/EndpointStream_AVR8.o
 .text.Endpoint_Read_Control_EStream_BE
                0x0000000000000000       0x8e .build/obj_sofle_rev1_default/lib/lufa/LUFA/Drivers/USB/Core/AVR8/EndpointStream_AVR8.o
 .text          0x0000000000000000        0x0 .build/obj_sofle_rev1_default/lib/lufa/LUFA/Drivers/USB/Core/AVR8/Endpoint_AVR8.o
 .data          0x0000000000000000        0x0 .build/obj_sofle_rev1_default/lib/lufa/LUFA/Drivers/USB/Core/AVR8/Endpoint_AVR8.o
 .bss           0x0000000000000000        0x0 .build/obj_sofle_rev1_default/lib/lufa/LUFA/Drivers/USB/Core/AVR8/Endpoint_AVR8.o
 .text.Endpoint_ConfigureEndpointTable
                0x0000000000000000       0x7c .build/obj_sofle_rev1_default/lib/lufa/LUFA/Drivers/USB/Core/AVR8/Endpoint_AVR8.o
 .text.Endpoint_ClearEndpoints
                0x0000000000000000       0x28 .build/obj_sofle_rev1_default/lib/lufa/LUFA/Drivers/USB/Core/AVR8/Endpoint_AVR8.o
 .text          0x0000000000000000        0x0 .build/obj_sofle_rev1_default/lib/lufa/LUFA/Drivers/USB/Core/AVR8/Host_AVR8.o
 .data          0x0000000000000000        0x0 .build/obj_sofle_rev1_default/lib/lufa/LUFA/Drivers/USB/Core/AVR8/Host_AVR8.o
 .bss           0x0000000000000000        0x0 .build/obj_sofle_rev1_default/lib/lufa/LUFA/Drivers/USB/Core/AVR8/Host_AVR8.o
 .debug_info    0x0000000000000000       0x56 .build/obj_sofle_rev1_default/lib/lufa/LUFA/Drivers/USB/Core/AVR8/Host_AVR8.o
 .debug_abbrev  0x0000000000000000       0x26 .build/obj_sofle_rev1_default/lib/lufa/LUFA/Drivers/USB/Core/AVR8/Host_AVR8.o
 .debug_aranges
                0x0000000000000000       0x18 .build/obj_sofle_rev1_default/lib/lufa/LUFA/Drivers/USB/Core/AVR8/Host_AVR8.o
 .debug_line    0x0000000000000000       0x1d .build/obj_sofle_rev1_default/lib/lufa/LUFA/Drivers/USB/Core/AVR8/Host_AVR8.o
 .debug_str     0x0000000000000000      0x1be .build/obj_sofle_rev1_default/lib/lufa/LUFA/Drivers/USB/Core/AVR8/Host_AVR8.o
 .comment       0x0000000000000000       0x13 .build/obj_sofle_rev1_default/lib/lufa/LUFA/Drivers/USB/Core/AVR8/Host_AVR8.o
 .text          0x0000000000000000        0x0 .build/obj_sofle_rev1_default/lib/lufa/LUFA/Drivers/USB/Core/AVR8/PipeStream_AVR8.o
 .data          0x0000000000000000        0x0 .build/obj_sofle_rev1_default/lib/lufa/LUFA/Drivers/USB/Core/AVR8/PipeStream_AVR8.o
 .bss           0x0000000000000000        0x0 .build/obj_sofle_rev1_default/lib/lufa/LUFA/Drivers/USB/Core/AVR8/PipeStream_AVR8.o
 .debug_info    0x0000000000000000       0x56 .build/obj_sofle_rev1_default/lib/lufa/LUFA/Drivers/USB/Core/AVR8/PipeStream_AVR8.o
 .debug_abbrev  0x0000000000000000       0x26 .build/obj_sofle_rev1_default/lib/lufa/LUFA/Drivers/USB/Core/AVR8/PipeStream_AVR8.o
 .debug_aranges
                0x0000000000000000       0x18 .build/obj_sofle_rev1_default/lib/lufa/LUFA/Drivers/USB/Core/AVR8/PipeStream_AVR8.o
 .debug_line    0x0000000000000000       0x1d .build/obj_sofle_rev1_default/lib/lufa/LUFA/Drivers/USB/Core/AVR8/PipeStream_AVR8.o
 .debug_str     0x0000000000000000      0x1c4 .build/obj_sofle_rev1_default/lib/lufa/LUFA/Drivers/USB/Core/AVR8/PipeStream_AVR8.o
 .comment       0x0000000000000000       0x13 .build/obj_sofle_rev1_default/lib/lufa/LUFA/Drivers/USB/Core/AVR8/PipeStream_AVR8.o
 .text          0x0000000000000000        0x0 .build/obj_sofle_rev1_default/lib/lufa/LUFA/Drivers/USB/Core/AVR8/Pipe_AVR8.o
 .data          0x0000000000000000        0x0 .build/obj_sofle_rev1_default/lib/lufa/LUFA/Drivers/USB/Core/AVR8/Pipe_AVR8.o
 .bss           0x0000000000000000        0x0 .build/obj_sofle_rev1_default/lib/lufa/LUFA/Drivers/USB/Core/AVR8/Pipe_AVR8.o
 .debug_info    0x0000000000000000       0x56 .build/obj_sofle_rev1_default/lib/lufa/LUFA/Drivers/USB/Core/AVR8/Pipe_AVR8.o
 .debug_abbrev  0x0000000000000000       0x26 .build/obj_sofle_rev1_default/lib/lufa/LUFA/Drivers/USB/Core/AVR8/Pipe_AVR8.o
 .debug_aranges
                0x0000000000000000       0x18 .build/obj_sofle_rev1_default/lib/lufa/LUFA/Drivers/USB/Core/AVR8/Pipe_AVR8.o
 .debug_line    0x0000000000000000       0x1d .build/obj_sofle_rev1_default/lib/lufa/LUFA/Drivers/USB/Core/AVR8/Pipe_AVR8.o
 .debug_str     0x0000000000000000      0x1be .build/obj_sofle_rev1_default/lib/lufa/LUFA/Drivers/USB/Core/AVR8/Pipe_AVR8.o
 .comment       0x0000000000000000       0x13 .build/obj_sofle_rev1_default/lib/lufa/LUFA/Drivers/USB/Core/AVR8/Pipe_AVR8.o
 .text          0x0000000000000000        0x0 .build/obj_sofle_rev1_default/lib/lufa/LUFA/Drivers/USB/Core/AVR8/USBController_AVR8.o
 .data          0x0000000000000000        0x0 .build/obj_sofle_rev1_default/lib/lufa/LUFA/Drivers/USB/Core/AVR8/USBController_AVR8.o
 .bss           0x0000000000000000        0x0 .build/obj_sofle_rev1_default/lib/lufa/LUFA/Drivers/USB/Core/AVR8/USBController_AVR8.o
 .text          0x0000000000000000        0x0 .build/obj_sofle_rev1_default/lib/lufa/LUFA/Drivers/USB/Core/AVR8/USBInterrupt_AVR8.o
 .data          0x0000000000000000        0x0 .build/obj_sofle_rev1_default/lib/lufa/LUFA/Drivers/USB/Core/AVR8/USBInterrupt_AVR8.o
 .bss           0x0000000000000000        0x0 .build/obj_sofle_rev1_default/lib/lufa/LUFA/Drivers/USB/Core/AVR8/USBInterrupt_AVR8.o
 .text          0x0000000000000000        0x0 .build/obj_sofle_rev1_default/lib/lufa/LUFA/Drivers/USB/Core/ConfigDescriptors.o
 .data          0x0000000000000000        0x0 .build/obj_sofle_rev1_default/lib/lufa/LUFA/Drivers/USB/Core/ConfigDescriptors.o
 .bss           0x0000000000000000        0x0 .build/obj_sofle_rev1_default/lib/lufa/LUFA/Drivers/USB/Core/ConfigDescriptors.o
 .text.USB_GetNextDescriptorOfType
                0x0000000000000000       0x4c .build/obj_sofle_rev1_default/lib/lufa/LUFA/Drivers/USB/Core/ConfigDescriptors.o
 .text.USB_GetNextDescriptorOfTypeBefore
                0x0000000000000000       0x54 .build/obj_sofle_rev1_default/lib/lufa/LUFA/Drivers/USB/Core/ConfigDescriptors.o
 .text.USB_GetNextDescriptorOfTypeAfter
                0x0000000000000000       0x3e .build/obj_sofle_rev1_default/lib/lufa/LUFA/Drivers/USB/Core/ConfigDescriptors.o
 .text.USB_GetNextDescriptorComp
                0x0000000000000000       0x84 .build/obj_sofle_rev1_default/lib/lufa/LUFA/Drivers/USB/Core/ConfigDescriptors.o
 .debug_info    0x0000000000000000      0x463 .build/obj_sofle_rev1_default/lib/lufa/LUFA/Drivers/USB/Core/ConfigDescriptors.o
 .debug_abbrev  0x0000000000000000      0x1d5 .build/obj_sofle_rev1_default/lib/lufa/LUFA/Drivers/USB/Core/ConfigDescriptors.o
 .debug_loc     0x0000000000000000      0x565 .build/obj_sofle_rev1_default/lib/lufa/LUFA/Drivers/USB/Core/ConfigDescriptors.o
 .debug_aranges
                0x0000000000000000       0x38 .build/obj_sofle_rev1_default/lib/lufa/LUFA/Drivers/USB/Core/ConfigDescriptors.o
 .debug_ranges  0x0000000000000000       0x28 .build/obj_sofle_rev1_default/lib/lufa/LUFA/Drivers/USB/Core/ConfigDescriptors.o
 .debug_line    0x0000000000000000      0x3f8 .build/obj_sofle_rev1_default/lib/lufa/LUFA/Drivers/USB/Core/ConfigDescriptors.o
 .debug_str     0x0000000000000000      0x404 .build/obj_sofle_rev1_default/lib/lufa/LUFA/Drivers/USB/Core/ConfigDescriptors.o
 .comment       0x0000000000000000       0x13 .build/obj_sofle_rev1_default/lib/lufa/LUFA/Drivers/USB/Core/ConfigDescriptors.o
 .debug_frame   0x0000000000000000       0xbc .build/obj_sofle_rev1_default/lib/lufa/LUFA/Drivers/USB/Core/ConfigDescriptors.o
 .text          0x0000000000000000        0x0 .build/obj_sofle_rev1_default/lib/lufa/LUFA/Drivers/USB/Core/DeviceStandardReq.o
 .data          0x0000000000000000        0x0 .build/obj_sofle_rev1_default/lib/lufa/LUFA/Drivers/USB/Core/DeviceStandardReq.o
 .bss           0x0000000000000000        0x0 .build/obj_sofle_rev1_default/lib/lufa/LUFA/Drivers/USB/Core/DeviceStandardReq.o
 .text          0x0000000000000000        0x0 .build/obj_sofle_rev1_default/lib/lufa/LUFA/Drivers/USB/Core/Events.o
 .data          0x0000000000000000        0x0 .build/obj_sofle_rev1_default/lib/lufa/LUFA/Drivers/USB/Core/Events.o
 .bss           0x0000000000000000        0x0 .build/obj_sofle_rev1_default/lib/lufa/LUFA/Drivers/USB/Core/Events.o
 .text.USB_Event_Stub
                0x0000000000000000        0x2 .build/obj_sofle_rev1_default/lib/lufa/LUFA/Drivers/USB/Core/Events.o
 .text.USB_Event_Stub_2
                0x0000000000000000        0x2 .build/obj_sofle_rev1_default/lib/lufa/LUFA/Drivers/USB/Core/Events.o
 .text.USB_Event_Stub_3
                0x0000000000000000        0x2 .build/obj_sofle_rev1_default/lib/lufa/LUFA/Drivers/USB/Core/Events.o
 .debug_info    0x0000000000000000       0xe9 .build/obj_sofle_rev1_default/lib/lufa/LUFA/Drivers/USB/Core/Events.o
 .debug_abbrev  0x0000000000000000       0x89 .build/obj_sofle_rev1_default/lib/lufa/LUFA/Drivers/USB/Core/Events.o
 .debug_aranges
                0x0000000000000000       0x30 .build/obj_sofle_rev1_default/lib/lufa/LUFA/Drivers/USB/Core/Events.o
 .debug_ranges  0x0000000000000000       0x20 .build/obj_sofle_rev1_default/lib/lufa/LUFA/Drivers/USB/Core/Events.o
 .debug_line    0x0000000000000000       0xd5 .build/obj_sofle_rev1_default/lib/lufa/LUFA/Drivers/USB/Core/Events.o
 .debug_str     0x0000000000000000      0x1ef .build/obj_sofle_rev1_default/lib/lufa/LUFA/Drivers/USB/Core/Events.o
 .comment       0x0000000000000000       0x13 .build/obj_sofle_rev1_default/lib/lufa/LUFA/Drivers/USB/Core/Events.o
 .debug_frame   0x0000000000000000       0x44 .build/obj_sofle_rev1_default/lib/lufa/LUFA/Drivers/USB/Core/Events.o
 .text          0x0000000000000000        0x0 .build/obj_sofle_rev1_default/lib/lufa/LUFA/Drivers/USB/Core/HostStandardReq.o
 .data          0x0000000000000000        0x0 .build/obj_sofle_rev1_default/lib/lufa/LUFA/Drivers/USB/Core/HostStandardReq.o
 .bss           0x0000000000000000        0x0 .build/obj_sofle_rev1_default/lib/lufa/LUFA/Drivers/USB/Core/HostStandardReq.o
 .debug_info    0x0000000000000000       0x56 .build/obj_sofle_rev1_default/lib/lufa/LUFA/Drivers/USB/Core/HostStandardReq.o
 .debug_abbrev  0x0000000000000000       0x26 .build/obj_sofle_rev1_default/lib/lufa/LUFA/Drivers/USB/Core/HostStandardReq.o
 .debug_aranges
                0x0000000000000000       0x18 .build/obj_sofle_rev1_default/lib/lufa/LUFA/Drivers/USB/Core/HostStandardReq.o
 .debug_line    0x0000000000000000       0x1d .build/obj_sofle_rev1_default/lib/lufa/LUFA/Drivers/USB/Core/HostStandardReq.o
 .debug_str     0x0000000000000000      0x1bf .build/obj_sofle_rev1_default/lib/lufa/LUFA/Drivers/USB/Core/HostStandardReq.o
 .comment       0x0000000000000000       0x13 .build/obj_sofle_rev1_default/lib/lufa/LUFA/Drivers/USB/Core/HostStandardReq.o
 .text          0x0000000000000000        0x0 .build/obj_sofle_rev1_default/lib/lufa/LUFA/Drivers/USB/Core/USBTask.o
 .data          0x0000000000000000        0x0 .build/obj_sofle_rev1_default/lib/lufa/LUFA/Drivers/USB/Core/USBTask.o
 .bss           0x0000000000000000        0x0 .build/obj_sofle_rev1_default/lib/lufa/LUFA/Drivers/USB/Core/USBTask.o
 .text          0x0000000000000000        0x0 .build/obj_sofle_rev1_default/protocol/lufa/usb_util.o
 .data          0x0000000000000000        0x0 .build/obj_sofle_rev1_default/protocol/lufa/usb_util.o
 .bss           0x0000000000000000        0x0 .build/obj_sofle_rev1_default/protocol/lufa/usb_util.o
 .text.usb_connected_state
                0x0000000000000000        0xc .build/obj_sofle_rev1_default/protocol/lufa/usb_util.o
 .text          0x0000000000000000        0x0 /usr/lib/gcc/avr/11.2.0/../../../../avr/lib/avr5/libm.a(fixunssfsi.o)
 .data          0x0000000000000000        0x0 /usr/lib/gcc/avr/11.2.0/../../../../avr/lib/avr5/libm.a(fixunssfsi.o)
 .bss           0x0000000000000000        0x0 /usr/lib/gcc/avr/11.2.0/../../../../avr/lib/avr5/libm.a(fixunssfsi.o)
 .text.avr-libc.fplib
                0x0000000000000000       0x5e /usr/lib/gcc/avr/11.2.0/../../../../avr/lib/avr5/libm.a(fixunssfsi.o)
 .text          0x0000000000000000        0x0 /usr/lib/gcc/avr/11.2.0/../../../../avr/lib/avr5/libm.a(fp_split3.o)
 .data          0x0000000000000000        0x0 /usr/lib/gcc/avr/11.2.0/../../../../avr/lib/avr5/libm.a(fp_split3.o)
 .bss           0x0000000000000000        0x0 /usr/lib/gcc/avr/11.2.0/../../../../avr/lib/avr5/libm.a(fp_split3.o)
 .text.avr-libc.fplib
                0x0000000000000000       0x44 /usr/lib/gcc/avr/11.2.0/../../../../avr/lib/avr5/libm.a(fp_split3.o)
 .text          0x0000000000000000        0x0 /usr/lib/gcc/avr/11.2.0/../../../../avr/lib/avr5/libm.a(fp_zero.o)
 .data          0x0000000000000000        0x0 /usr/lib/gcc/avr/11.2.0/../../../../avr/lib/avr5/libm.a(fp_zero.o)
 .bss           0x0000000000000000        0x0 /usr/lib/gcc/avr/11.2.0/../../../../avr/lib/avr5/libm.a(fp_zero.o)
 .text.avr-libc.fplib
                0x0000000000000000        0xe /usr/lib/gcc/avr/11.2.0/../../../../avr/lib/avr5/libm.a(fp_zero.o)
 .text          0x0000000000000000        0x0 /usr/lib/gcc/avr/11.2.0/../../../../avr/lib/avr5/libm.a(mulsf3.o)
 .data          0x0000000000000000        0x0 /usr/lib/gcc/avr/11.2.0/../../../../avr/lib/avr5/libm.a(mulsf3.o)
 .bss           0x0000000000000000        0x0 /usr/lib/gcc/avr/11.2.0/../../../../avr/lib/avr5/libm.a(mulsf3.o)
 .text.avr-libc.fplib
                0x0000000000000000        0x8 /usr/lib/gcc/avr/11.2.0/../../../../avr/lib/avr5/libm.a(mulsf3.o)
 .text          0x0000000000000000        0x0 /usr/lib/gcc/avr/11.2.0/../../../../avr/lib/avr5/libm.a(mulsf3x.o)
 .data          0x0000000000000000        0x0 /usr/lib/gcc/avr/11.2.0/../../../../avr/lib/avr5/libm.a(mulsf3x.o)
 .bss           0x0000000000000000        0x0 /usr/lib/gcc/avr/11.2.0/../../../../avr/lib/avr5/libm.a(mulsf3x.o)
 .text.avr-libc.fplib
                0x0000000000000000       0xd2 /usr/lib/gcc/avr/11.2.0/../../../../avr/lib/avr5/libm.a(mulsf3x.o)
 .text          0x0000000000000000        0x0 /usr/lib/gcc/avr/11.2.0/../../../../avr/lib/avr5/libm.a(fp_inf.o)
 .data          0x0000000000000000        0x0 /usr/lib/gcc/avr/11.2.0/../../../../avr/lib/avr5/libm.a(fp_inf.o)
 .bss           0x0000000000000000        0x0 /usr/lib/gcc/avr/11.2.0/../../../../avr/lib/avr5/libm.a(fp_inf.o)
 .text.avr-libc.fplib
                0x0000000000000000        0xc /usr/lib/gcc/avr/11.2.0/../../../../avr/lib/avr5/libm.a(fp_inf.o)
 .text          0x0000000000000000        0x0 /usr/lib/gcc/avr/11.2.0/../../../../avr/lib/avr5/libm.a(fp_nan.o)
 .data          0x0000000000000000        0x0 /usr/lib/gcc/avr/11.2.0/../../../../avr/lib/avr5/libm.a(fp_nan.o)
 .bss           0x0000000000000000        0x0 /usr/lib/gcc/avr/11.2.0/../../../../avr/lib/avr5/libm.a(fp_nan.o)
 .text.avr-libc.fplib
                0x0000000000000000        0x6 /usr/lib/gcc/avr/11.2.0/../../../../avr/lib/avr5/libm.a(fp_nan.o)
 .text          0x0000000000000000        0x0 /usr/lib/gcc/avr/11.2.0/../../../../avr/lib/avr5/libm.a(fp_pscA.o)
 .data          0x0000000000000000        0x0 /usr/lib/gcc/avr/11.2.0/../../../../avr/lib/avr5/libm.a(fp_pscA.o)
 .bss           0x0000000000000000        0x0 /usr/lib/gcc/avr/11.2.0/../../../../avr/lib/avr5/libm.a(fp_pscA.o)
 .text.avr-libc.fplib
                0x0000000000000000        0xe /usr/lib/gcc/avr/11.2.0/../../../../avr/lib/avr5/libm.a(fp_pscA.o)
 .text          0x0000000000000000        0x0 /usr/lib/gcc/avr/11.2.0/../../../../avr/lib/avr5/libm.a(fp_pscB.o)
 .data          0x0000000000000000        0x0 /usr/lib/gcc/avr/11.2.0/../../../../avr/lib/avr5/libm.a(fp_pscB.o)
 .bss           0x0000000000000000        0x0 /usr/lib/gcc/avr/11.2.0/../../../../avr/lib/avr5/libm.a(fp_pscB.o)
 .text.avr-libc.fplib
                0x0000000000000000        0xe /usr/lib/gcc/avr/11.2.0/../../../../avr/lib/avr5/libm.a(fp_pscB.o)
 .text          0x0000000000000000        0x0 /usr/lib/gcc/avr/11.2.0/../../../../avr/lib/avr5/libm.a(fp_round.o)
 .data          0x0000000000000000        0x0 /usr/lib/gcc/avr/11.2.0/../../../../avr/lib/avr5/libm.a(fp_round.o)
 .bss           0x0000000000000000        0x0 /usr/lib/gcc/avr/11.2.0/../../../../avr/lib/avr5/libm.a(fp_round.o)
 .text.avr-libc.fplib
                0x0000000000000000       0x22 /usr/lib/gcc/avr/11.2.0/../../../../avr/lib/avr5/libm.a(fp_round.o)
 .text          0x0000000000000000        0x0 /usr/lib/gcc/avr/11.2.0/avr5/libgcc.a(_udivmodqi4.o)
 .data          0x0000000000000000        0x0 /usr/lib/gcc/avr/11.2.0/avr5/libgcc.a(_udivmodqi4.o)
 .bss           0x0000000000000000        0x0 /usr/lib/gcc/avr/11.2.0/avr5/libgcc.a(_udivmodqi4.o)
 .text.libgcc.mul
                0x0000000000000000        0x0 /usr/lib/gcc/avr/11.2.0/avr5/libgcc.a(_udivmodqi4.o)
 .text.libgcc   0x0000000000000000        0x0 /usr/lib/gcc/avr/11.2.0/avr5/libgcc.a(_udivmodqi4.o)
 .text.libgcc.prologue
                0x0000000000000000        0x0 /usr/lib/gcc/avr/11.2.0/avr5/libgcc.a(_udivmodqi4.o)
 .text.libgcc.builtins
                0x0000000000000000        0x0 /usr/lib/gcc/avr/11.2.0/avr5/libgcc.a(_udivmodqi4.o)
 .text.libgcc.fmul
                0x0000000000000000        0x0 /usr/lib/gcc/avr/11.2.0/avr5/libgcc.a(_udivmodqi4.o)
 .text.libgcc.fixed
                0x0000000000000000        0x0 /usr/lib/gcc/avr/11.2.0/avr5/libgcc.a(_udivmodqi4.o)
 .text          0x0000000000000000        0x0 /usr/lib/gcc/avr/11.2.0/avr5/libgcc.a(_udivmodhi4.o)
 .data          0x0000000000000000        0x0 /usr/lib/gcc/avr/11.2.0/avr5/libgcc.a(_udivmodhi4.o)
 .bss           0x0000000000000000        0x0 /usr/lib/gcc/avr/11.2.0/avr5/libgcc.a(_udivmodhi4.o)
 .text.libgcc.mul
                0x0000000000000000        0x0 /usr/lib/gcc/avr/11.2.0/avr5/libgcc.a(_udivmodhi4.o)
 .text.libgcc   0x0000000000000000        0x0 /usr/lib/gcc/avr/11.2.0/avr5/libgcc.a(_udivmodhi4.o)
 .text.libgcc.prologue
                0x0000000000000000        0x0 /usr/lib/gcc/avr/11.2.0/avr5/libgcc.a(_udivmodhi4.o)
 .text.libgcc.builtins
                0x0000000000000000        0x0 /usr/lib/gcc/avr/11.2.0/avr5/libgcc.a(_udivmodhi4.o)
 .text.libgcc.fmul
                0x0000000000000000        0x0 /usr/lib/gcc/avr/11.2.0/avr5/libgcc.a(_udivmodhi4.o)
 .text.libgcc.fixed
                0x0000000000000000        0x0 /usr/lib/gcc/avr/11.2.0/avr5/libgcc.a(_udivmodhi4.o)
 .text          0x0000000000000000        0x0 /usr/lib/gcc/avr/11.2.0/avr5/libgcc.a(_divmodhi4.o)
 .data          0x0000000000000000        0x0 /usr/lib/gcc/avr/11.2.0/avr5/libgcc.a(_divmodhi4.o)
 .bss           0x0000000000000000        0x0 /usr/lib/gcc/avr/11.2.0/avr5/libgcc.a(_divmodhi4.o)
 .text.libgcc.mul
                0x0000000000000000        0x0 /usr/lib/gcc/avr/11.2.0/avr5/libgcc.a(_divmodhi4.o)
 .text.libgcc   0x0000000000000000        0x0 /usr/lib/gcc/avr/11.2.0/avr5/libgcc.a(_divmodhi4.o)
 .text.libgcc.prologue
                0x0000000000000000        0x0 /usr/lib/gcc/avr/11.2.0/avr5/libgcc.a(_divmodhi4.o)
 .text.libgcc.builtins
                0x0000000000000000        0x0 /usr/lib/gcc/avr/11.2.0/avr5/libgcc.a(_divmodhi4.o)
 .text.libgcc.fmul
                0x0000000000000000        0x0 /usr/lib/gcc/avr/11.2.0/avr5/libgcc.a(_divmodhi4.o)
 .text.libgcc.fixed
                0x0000000000000000        0x0 /usr/lib/gcc/avr/11.2.0/avr5/libgcc.a(_divmodhi4.o)
 .text          0x0000000000000000        0x0 /usr/lib/gcc/avr/11.2.0/avr5/libgcc.a(_exit.o)
 .data          0x0000000000000000        0x0 /usr/lib/gcc/avr/11.2.0/avr5/libgcc.a(_exit.o)
 .bss           0x0000000000000000        0x0 /usr/lib/gcc/avr/11.2.0/avr5/libgcc.a(_exit.o)
 .text.libgcc.mul
                0x0000000000000000        0x0 /usr/lib/gcc/avr/11.2.0/avr5/libgcc.a(_exit.o)
 .text.libgcc.div
                0x0000000000000000        0x0 /usr/lib/gcc/avr/11.2.0/avr5/libgcc.a(_exit.o)
 .text.libgcc   0x0000000000000000        0x0 /usr/lib/gcc/avr/11.2.0/avr5/libgcc.a(_exit.o)
 .text.libgcc.prologue
                0x0000000000000000        0x0 /usr/lib/gcc/avr/11.2.0/avr5/libgcc.a(_exit.o)
 .text.libgcc.builtins
                0x0000000000000000        0x0 /usr/lib/gcc/avr/11.2.0/avr5/libgcc.a(_exit.o)
 .text.libgcc.fmul
                0x0000000000000000        0x0 /usr/lib/gcc/avr/11.2.0/avr5/libgcc.a(_exit.o)
 .text.libgcc.fixed
                0x0000000000000000        0x0 /usr/lib/gcc/avr/11.2.0/avr5/libgcc.a(_exit.o)
 .text          0x0000000000000000        0x0 /usr/lib/gcc/avr/11.2.0/avr5/libgcc.a(_tablejump2.o)
 .data          0x0000000000000000        0x0 /usr/lib/gcc/avr/11.2.0/avr5/libgcc.a(_tablejump2.o)
 .bss           0x0000000000000000        0x0 /usr/lib/gcc/avr/11.2.0/avr5/libgcc.a(_tablejump2.o)
 .text.libgcc.mul
                0x0000000000000000        0x0 /usr/lib/gcc/avr/11.2.0/avr5/libgcc.a(_tablejump2.o)
 .text.libgcc.div
                0x0000000000000000        0x0 /usr/lib/gcc/avr/11.2.0/avr5/libgcc.a(_tablejump2.o)
 .text.libgcc.prologue
                0x0000000000000000        0x0 /usr/lib/gcc/avr/11.2.0/avr5/libgcc.a(_tablejump2.o)
 .text.libgcc.builtins
                0x0000000000000000        0x0 /usr/lib/gcc/avr/11.2.0/avr5/libgcc.a(_tablejump2.o)
 .text.libgcc.fmul
                0x0000000000000000        0x0 /usr/lib/gcc/avr/11.2.0/avr5/libgcc.a(_tablejump2.o)
 .text.libgcc.fixed
                0x0000000000000000        0x0 /usr/lib/gcc/avr/11.2.0/avr5/libgcc.a(_tablejump2.o)
 .text          0x0000000000000000        0x0 /usr/lib/gcc/avr/11.2.0/avr5/libgcc.a(_copy_data.o)
 .data          0x0000000000000000        0x0 /usr/lib/gcc/avr/11.2.0/avr5/libgcc.a(_copy_data.o)
 .bss           0x0000000000000000        0x0 /usr/lib/gcc/avr/11.2.0/avr5/libgcc.a(_copy_data.o)
 .text.libgcc.mul
                0x0000000000000000        0x0 /usr/lib/gcc/avr/11.2.0/avr5/libgcc.a(_copy_data.o)
 .text.libgcc.div
                0x0000000000000000        0x0 /usr/lib/gcc/avr/11.2.0/avr5/libgcc.a(_copy_data.o)
 .text.libgcc   0x0000000000000000        0x0 /usr/lib/gcc/avr/11.2.0/avr5/libgcc.a(_copy_data.o)
 .text.libgcc.prologue
                0x0000000000000000        0x0 /usr/lib/gcc/avr/11.2.0/avr5/libgcc.a(_copy_data.o)
 .text.libgcc.builtins
                0x0000000000000000        0x0 /usr/lib/gcc/avr/11.2.0/avr5/libgcc.a(_copy_data.o)
 .text.libgcc.fmul
                0x0000000000000000        0x0 /usr/lib/gcc/avr/11.2.0/avr5/libgcc.a(_copy_data.o)
 .text.libgcc.fixed
                0x0000000000000000        0x0 /usr/lib/gcc/avr/11.2.0/avr5/libgcc.a(_copy_data.o)
 .text          0x0000000000000000        0x0 /usr/lib/gcc/avr/11.2.0/avr5/libgcc.a(_clear_bss.o)
 .data          0x0000000000000000        0x0 /usr/lib/gcc/avr/11.2.0/avr5/libgcc.a(_clear_bss.o)
 .bss           0x0000000000000000        0x0 /usr/lib/gcc/avr/11.2.0/avr5/libgcc.a(_clear_bss.o)
 .text.libgcc.mul
                0x0000000000000000        0x0 /usr/lib/gcc/avr/11.2.0/avr5/libgcc.a(_clear_bss.o)
 .text.libgcc.div
                0x0000000000000000        0x0 /usr/lib/gcc/avr/11.2.0/avr5/libgcc.a(_clear_bss.o)
 .text.libgcc   0x0000000000000000        0x0 /usr/lib/gcc/avr/11.2.0/avr5/libgcc.a(_clear_bss.o)
 .text.libgcc.prologue
                0x0000000000000000        0x0 /usr/lib/gcc/avr/11.2.0/avr5/libgcc.a(_clear_bss.o)
 .text.libgcc.builtins
                0x0000000000000000        0x0 /usr/lib/gcc/avr/11.2.0/avr5/libgcc.a(_clear_bss.o)
 .text.libgcc.fmul
                0x0000000000000000        0x0 /usr/lib/gcc/avr/11.2.0/avr5/libgcc.a(_clear_bss.o)
 .text.libgcc.fixed
                0x0000000000000000        0x0 /usr/lib/gcc/avr/11.2.0/avr5/libgcc.a(_clear_bss.o)
 .text          0x0000000000000000        0x0 /usr/lib/gcc/avr/11.2.0/avr5/libgcc.a(_popcounthi2.o)
 .data          0x0000000000000000        0x0 /usr/lib/gcc/avr/11.2.0/avr5/libgcc.a(_popcounthi2.o)
 .bss           0x0000000000000000        0x0 /usr/lib/gcc/avr/11.2.0/avr5/libgcc.a(_popcounthi2.o)
 .text.libgcc.mul
                0x0000000000000000        0x0 /usr/lib/gcc/avr/11.2.0/avr5/libgcc.a(_popcounthi2.o)
 .text.libgcc.div
                0x0000000000000000        0x0 /usr/lib/gcc/avr/11.2.0/avr5/libgcc.a(_popcounthi2.o)
 .text.libgcc   0x0000000000000000        0x0 /usr/lib/gcc/avr/11.2.0/avr5/libgcc.a(_popcounthi2.o)
 .text.libgcc.prologue
                0x0000000000000000        0x0 /usr/lib/gcc/avr/11.2.0/avr5/libgcc.a(_popcounthi2.o)
 .text.libgcc.builtins
                0x0000000000000000       0x14 /usr/lib/gcc/avr/11.2.0/avr5/libgcc.a(_popcounthi2.o)
 .text.libgcc.fmul
                0x0000000000000000        0x0 /usr/lib/gcc/avr/11.2.0/avr5/libgcc.a(_popcounthi2.o)
 .text.libgcc.fixed
                0x0000000000000000        0x0 /usr/lib/gcc/avr/11.2.0/avr5/libgcc.a(_popcounthi2.o)
 .text          0x0000000000000000        0x0 /usr/lib/gcc/avr/11.2.0/avr5/libgcc.a(_popcountsi2.o)
 .data          0x0000000000000000        0x0 /usr/lib/gcc/avr/11.2.0/avr5/libgcc.a(_popcountsi2.o)
 .bss           0x0000000000000000        0x0 /usr/lib/gcc/avr/11.2.0/avr5/libgcc.a(_popcountsi2.o)
 .text.libgcc.mul
                0x0000000000000000        0x0 /usr/lib/gcc/avr/11.2.0/avr5/libgcc.a(_popcountsi2.o)
 .text.libgcc.div
                0x0000000000000000        0x0 /usr/lib/gcc/avr/11.2.0/avr5/libgcc.a(_popcountsi2.o)
 .text.libgcc   0x0000000000000000        0x0 /usr/lib/gcc/avr/11.2.0/avr5/libgcc.a(_popcountsi2.o)
 .text.libgcc.prologue
                0x0000000000000000        0x0 /usr/lib/gcc/avr/11.2.0/avr5/libgcc.a(_popcountsi2.o)
 .text.libgcc.builtins
                0x0000000000000000       0x10 /usr/lib/gcc/avr/11.2.0/avr5/libgcc.a(_popcountsi2.o)
 .text.libgcc.fmul
                0x0000000000000000        0x0 /usr/lib/gcc/avr/11.2.0/avr5/libgcc.a(_popcountsi2.o)
 .text.libgcc.fixed
                0x0000000000000000        0x0 /usr/lib/gcc/avr/11.2.0/avr5/libgcc.a(_popcountsi2.o)
 .text          0x0000000000000000        0x0 /usr/lib/gcc/avr/11.2.0/avr5/libgcc.a(_popcountqi2.o)
 .data          0x0000000000000000        0x0 /usr/lib/gcc/avr/11.2.0/avr5/libgcc.a(_popcountqi2.o)
 .bss           0x0000000000000000        0x0 /usr/lib/gcc/avr/11.2.0/avr5/libgcc.a(_popcountqi2.o)
 .text.libgcc.mul
                0x0000000000000000        0x0 /usr/lib/gcc/avr/11.2.0/avr5/libgcc.a(_popcountqi2.o)
 .text.libgcc.div
                0x0000000000000000        0x0 /usr/lib/gcc/avr/11.2.0/avr5/libgcc.a(_popcountqi2.o)
 .text.libgcc   0x0000000000000000        0x0 /usr/lib/gcc/avr/11.2.0/avr5/libgcc.a(_popcountqi2.o)
 .text.libgcc.prologue
                0x0000000000000000        0x0 /usr/lib/gcc/avr/11.2.0/avr5/libgcc.a(_popcountqi2.o)
 .text.libgcc.builtins
                0x0000000000000000       0x20 /usr/lib/gcc/avr/11.2.0/avr5/libgcc.a(_popcountqi2.o)
 .text.libgcc.fmul
                0x0000000000000000        0x0 /usr/lib/gcc/avr/11.2.0/avr5/libgcc.a(_popcountqi2.o)
 .text.libgcc.fixed
                0x0000000000000000        0x0 /usr/lib/gcc/avr/11.2.0/avr5/libgcc.a(_popcountqi2.o)
 .text          0x0000000000000000        0x0 /usr/lib/gcc/avr/11.2.0/../../../../avr/lib/avr5/libc.a(memcpy_P.o)
 .data          0x0000000000000000        0x0 /usr/lib/gcc/avr/11.2.0/../../../../avr/lib/avr5/libc.a(memcpy_P.o)
 .bss           0x0000000000000000        0x0 /usr/lib/gcc/avr/11.2.0/../../../../avr/lib/avr5/libc.a(memcpy_P.o)
 .text          0x0000000000000000        0x0 /usr/lib/gcc/avr/11.2.0/../../../../avr/lib/avr5/libc.a(memcmp.o)
 .data          0x0000000000000000        0x0 /usr/lib/gcc/avr/11.2.0/../../../../avr/lib/avr5/libc.a(memcmp.o)
 .bss           0x0000000000000000        0x0 /usr/lib/gcc/avr/11.2.0/../../../../avr/lib/avr5/libc.a(memcmp.o)
 .text          0x0000000000000000        0x0 /usr/lib/gcc/avr/11.2.0/../../../../avr/lib/avr5/libc.a(memcpy.o)
 .data          0x0000000000000000        0x0 /usr/lib/gcc/avr/11.2.0/../../../../avr/lib/avr5/libc.a(memcpy.o)
 .bss           0x0000000000000000        0x0 /usr/lib/gcc/avr/11.2.0/../../../../avr/lib/avr5/libc.a(memcpy.o)
 .text          0x0000000000000000        0x0 /usr/lib/gcc/avr/11.2.0/../../../../avr/lib/avr5/libc.a(memmove.o)
 .data          0x0000000000000000        0x0 /usr/lib/gcc/avr/11.2.0/../../../../avr/lib/avr5/libc.a(memmove.o)
 .bss           0x0000000000000000        0x0 /usr/lib/gcc/avr/11.2.0/../../../../avr/lib/avr5/libc.a(memmove.o)
 .text.avr-libc
                0x0000000000000000       0x24 /usr/lib/gcc/avr/11.2.0/../../../../avr/lib/avr5/libc.a(memmove.o)
 .text          0x0000000000000000        0x0 /usr/lib/gcc/avr/11.2.0/../../../../avr/lib/avr5/libatmega32u4.a(eerd_byte.o)
 .data          0x0000000000000000        0x0 /usr/lib/gcc/avr/11.2.0/../../../../avr/lib/avr5/libatmega32u4.a(eerd_byte.o)
 .bss           0x0000000000000000        0x0 /usr/lib/gcc/avr/11.2.0/../../../../avr/lib/avr5/libatmega32u4.a(eerd_byte.o)
 .text          0x0000000000000000        0x0 /usr/lib/gcc/avr/11.2.0/../../../../avr/lib/avr5/libatmega32u4.a(eerd_dword.o)
 .data          0x0000000000000000        0x0 /usr/lib/gcc/avr/11.2.0/../../../../avr/lib/avr5/libatmega32u4.a(eerd_dword.o)
 .bss           0x0000000000000000        0x0 /usr/lib/gcc/avr/11.2.0/../../../../avr/lib/avr5/libatmega32u4.a(eerd_dword.o)
 .text.avr-libc
                0x0000000000000000        0xc /usr/lib/gcc/avr/11.2.0/../../../../avr/lib/avr5/libatmega32u4.a(eerd_dword.o)
 .text          0x0000000000000000        0x0 /usr/lib/gcc/avr/11.2.0/../../../../avr/lib/avr5/libatmega32u4.a(eerd_word.o)
 .data          0x0000000000000000        0x0 /usr/lib/gcc/avr/11.2.0/../../../../avr/lib/avr5/libatmega32u4.a(eerd_word.o)
 .bss           0x0000000000000000        0x0 /usr/lib/gcc/avr/11.2.0/../../../../avr/lib/avr5/libatmega32u4.a(eerd_word.o)
 .text          0x0000000000000000        0x0 /usr/lib/gcc/avr/11.2.0/../../../../avr/lib/avr5/libatmega32u4.a(eeupd_byte.o)
 .data          0x0000000000000000        0x0 /usr/lib/gcc/avr/11.2.0/../../../../avr/lib/avr5/libatmega32u4.a(eeupd_byte.o)
 .bss           0x0000000000000000        0x0 /usr/lib/gcc/avr/11.2.0/../../../../avr/lib/avr5/libatmega32u4.a(eeupd_byte.o)
 .text          0x0000000000000000        0x0 /usr/lib/gcc/avr/11.2.0/../../../../avr/lib/avr5/libatmega32u4.a(eeupd_dword.o)
 .data          0x0000000000000000        0x0 /usr/lib/gcc/avr/11.2.0/../../../../avr/lib/avr5/libatmega32u4.a(eeupd_dword.o)
 .bss           0x0000000000000000        0x0 /usr/lib/gcc/avr/11.2.0/../../../../avr/lib/avr5/libatmega32u4.a(eeupd_dword.o)
 .text          0x0000000000000000        0x0 /usr/lib/gcc/avr/11.2.0/../../../../avr/lib/avr5/libatmega32u4.a(eeupd_word.o)
 .data          0x0000000000000000        0x0 /usr/lib/gcc/avr/11.2.0/../../../../avr/lib/avr5/libatmega32u4.a(eeupd_word.o)
 .bss           0x0000000000000000        0x0 /usr/lib/gcc/avr/11.2.0/../../../../avr/lib/avr5/libatmega32u4.a(eeupd_word.o)
 .text          0x0000000000000000        0x0 /usr/lib/gcc/avr/11.2.0/../../../../avr/lib/avr5/libatmega32u4.a(eerd_block.o)
 .data          0x0000000000000000        0x0 /usr/lib/gcc/avr/11.2.0/../../../../avr/lib/avr5/libatmega32u4.a(eerd_block.o)
 .bss           0x0000000000000000        0x0 /usr/lib/gcc/avr/11.2.0/../../../../avr/lib/avr5/libatmega32u4.a(eerd_block.o)

Memory Configuration

Name             Origin             Length             Attributes
text             0x0000000000000000 0x0000000000020000 xr
data             0x0000000000800060 0x000000000000ffa0 rw !x
eeprom           0x0000000000810000 0x0000000000010000 rw !x
fuse             0x0000000000820000 0x0000000000000400 rw !x
lock             0x0000000000830000 0x0000000000000400 rw !x
signature        0x0000000000840000 0x0000000000000400 rw !x
user_signatures  0x0000000000850000 0x0000000000000400 rw !x
*default*        0x0000000000000000 0xffffffffffffffff

Linker script and memory map

Address of section .data set to 0x800100
LOAD /usr/lib/gcc/avr/11.2.0/../../../../avr/lib/avr5/crtatmega32u4.o
LOAD .build/obj_sofle_rev1_default/keyboards/sofle/sofle.o
LOAD .build/obj_sofle_rev1_default/keyboards/sofle/rev1/rev1.o
LOAD .build/obj_sofle_rev1_default/keyboards/sofle/keymaps/default/keymap.o
LOAD .build/obj_sofle_rev1_default/quantum/quantum.o
LOAD .build/obj_sofle_rev1_default/quantum/send_string.o
LOAD .build/obj_sofle_rev1_default/quantum/bitwise.o
LOAD .build/obj_sofle_rev1_default/quantum/led.o
LOAD .build/obj_sofle_rev1_default/quantum/action.o
LOAD .build/obj_sofle_rev1_default/quantum/action_layer.o
LOAD .build/obj_sofle_rev1_default/quantum/action_macro.o
LOAD .build/obj_sofle_rev1_default/quantum/action_tapping.o
LOAD .build/obj_sofle_rev1_default/quantum/action_util.o
LOAD .build/obj_sofle_rev1_default/quantum/eeconfig.o
LOAD .build/obj_sofle_rev1_default/quantum/keyboard.o
LOAD .build/obj_sofle_rev1_default/quantum/keymap_common.o
LOAD .build/obj_sofle_rev1_default/quantum/keycode_config.o
LOAD .build/obj_sofle_rev1_default/quantum/logging/debug.o
LOAD .build/obj_sofle_rev1_default/quantum/logging/sendchar.o
LOAD .build/obj_sofle_rev1_default/quantum/bootmagic/magic.o
LOAD .build/obj_sofle_rev1_default/quantum/matrix_common.o
LOAD .build/obj_sofle_rev1_default/quantum/matrix.o
LOAD .build/obj_sofle_rev1_default/quantum/debounce/sym_defer_g.o
LOAD .build/obj_sofle_rev1_default/quantum/split_common/split_util.o
LOAD .build/obj_sofle_rev1_default/quantum/split_common/transport.o
LOAD .build/obj_sofle_rev1_default/quantum/split_common/transactions.o
LOAD .build/obj_sofle_rev1_default/quantum/main.o
LOAD .build/obj_sofle_rev1_default/quantum/encoder.o
LOAD .build/obj_sofle_rev1_default/crc.o
LOAD .build/obj_sofle_rev1_default/ssd1306_sh1106.o
LOAD .build/obj_sofle_rev1_default/quantum/process_keycode/process_space_cadet.o
LOAD .build/obj_sofle_rev1_default/quantum/process_keycode/process_magic.o
LOAD .build/obj_sofle_rev1_default/quantum/process_keycode/process_grave_esc.o
LOAD .build/obj_sofle_rev1_default/i2c_master.a
LOAD .build/obj_sofle_rev1_default/i2c_slave.a
LOAD .build/obj_sofle_rev1_default/serial.a
LOAD .build/obj_sofle_rev1_default/common/host.o
LOAD .build/obj_sofle_rev1_default/common/report.o
LOAD .build/obj_sofle_rev1_default/common/sync_timer.o
LOAD .build/obj_sofle_rev1_default/common/usb_util.o
LOAD .build/obj_sofle_rev1_default/common/avr/platform.o
LOAD .build/obj_sofle_rev1_default/common/avr/suspend.o
LOAD .build/obj_sofle_rev1_default/common/avr/timer.o
LOAD .build/obj_sofle_rev1_default/common/avr/bootloader.o
LOAD .build/obj_sofle_rev1_default/common/avr/xprintf.o
LOAD .build/obj_sofle_rev1_default/common/avr/printf.o
LOAD .build/obj_sofle_rev1_default/lufa.o
LOAD .build/obj_sofle_rev1_default/usb_descriptor.o
LOAD .build/obj_sofle_rev1_default/lib/lufa/LUFA/Drivers/USB/Class/Common/HIDParser.o
LOAD .build/obj_sofle_rev1_default/lib/lufa/LUFA/Drivers/USB/Core/AVR8/Device_AVR8.o
LOAD .build/obj_sofle_rev1_default/lib/lufa/LUFA/Drivers/USB/Core/AVR8/EndpointStream_AVR8.o
LOAD .build/obj_sofle_rev1_default/lib/lufa/LUFA/Drivers/USB/Core/AVR8/Endpoint_AVR8.o
LOAD .build/obj_sofle_rev1_default/lib/lufa/LUFA/Drivers/USB/Core/AVR8/Host_AVR8.o
LOAD .build/obj_sofle_rev1_default/lib/lufa/LUFA/Drivers/USB/Core/AVR8/PipeStream_AVR8.o
LOAD .build/obj_sofle_rev1_default/lib/lufa/LUFA/Drivers/USB/Core/AVR8/Pipe_AVR8.o
LOAD .build/obj_sofle_rev1_default/lib/lufa/LUFA/Drivers/USB/Core/AVR8/USBController_AVR8.o
LOAD .build/obj_sofle_rev1_default/lib/lufa/LUFA/Drivers/USB/Core/AVR8/USBInterrupt_AVR8.o
LOAD .build/obj_sofle_rev1_default/lib/lufa/LUFA/Drivers/USB/Core/ConfigDescriptors.o
LOAD .build/obj_sofle_rev1_default/lib/lufa/LUFA/Drivers/USB/Core/DeviceStandardReq.o
LOAD .build/obj_sofle_rev1_default/lib/lufa/LUFA/Drivers/USB/Core/Events.o
LOAD .build/obj_sofle_rev1_default/lib/lufa/LUFA/Drivers/USB/Core/HostStandardReq.o
LOAD .build/obj_sofle_rev1_default/lib/lufa/LUFA/Drivers/USB/Core/USBTask.o
LOAD .build/obj_sofle_rev1_default/protocol/lufa/usb_util.o
LOAD /usr/lib/gcc/avr/11.2.0/../../../../avr/lib/avr5/libm.a
START GROUP
LOAD /usr/lib/gcc/avr/11.2.0/avr5/libgcc.a
LOAD /usr/lib/gcc/avr/11.2.0/../../../../avr/lib/avr5/libm.a
LOAD /usr/lib/gcc/avr/11.2.0/../../../../avr/lib/avr5/libc.a
LOAD /usr/lib/gcc/avr/11.2.0/../../../../avr/lib/avr5/libatmega32u4.a
END GROUP
                0x0000000000020000                __TEXT_REGION_LENGTH__ = DEFINED (__TEXT_REGION_LENGTH__)?__TEXT_REGION_LENGTH__:0x20000
                0x000000000000ffa0                __DATA_REGION_LENGTH__ = DEFINED (__DATA_REGION_LENGTH__)?__DATA_REGION_LENGTH__:0xffa0
                0x0000000000010000                __EEPROM_REGION_LENGTH__ = DEFINED (__EEPROM_REGION_LENGTH__)?__EEPROM_REGION_LENGTH__:0x10000
                0x0000000000000400                __FUSE_REGION_LENGTH__ = DEFINED (__FUSE_REGION_LENGTH__)?__FUSE_REGION_LENGTH__:0x400
                0x0000000000000400                __LOCK_REGION_LENGTH__ = DEFINED (__LOCK_REGION_LENGTH__)?__LOCK_REGION_LENGTH__:0x400
                0x0000000000000400                __SIGNATURE_REGION_LENGTH__ = DEFINED (__SIGNATURE_REGION_LENGTH__)?__SIGNATURE_REGION_LENGTH__:0x400
                0x0000000000000400                __USER_SIGNATURE_REGION_LENGTH__ = DEFINED (__USER_SIGNATURE_REGION_LENGTH__)?__USER_SIGNATURE_REGION_LENGTH__:0x400

.hash
 *(.hash)

.dynsym
 *(.dynsym)

.dynstr
 *(.dynstr)

.gnu.version
 *(.gnu.version)

.gnu.version_d
 *(.gnu.version_d)

.gnu.version_r
 *(.gnu.version_r)

.rel.init
 *(.rel.init)

.rela.init
 *(.rela.init)

.rel.text
 *(.rel.text)
 *(.rel.text.*)
 *(.rel.gnu.linkonce.t*)

.rela.text
 *(.rela.text)
 *(.rela.text.*)
 *(.rela.gnu.linkonce.t*)

.rel.fini
 *(.rel.fini)

.rela.fini
 *(.rela.fini)

.rel.rodata
 *(.rel.rodata)
 *(.rel.rodata.*)
 *(.rel.gnu.linkonce.r*)

.rela.rodata
 *(.rela.rodata)
 *(.rela.rodata.*)
 *(.rela.gnu.linkonce.r*)

.rel.data
 *(.rel.data)
 *(.rel.data.*)
 *(.rel.gnu.linkonce.d*)

.rela.data
 *(.rela.data)
 *(.rela.data.*)
 *(.rela.gnu.linkonce.d*)

.rel.ctors
 *(.rel.ctors)

.rela.ctors
 *(.rela.ctors)

.rel.dtors
 *(.rel.dtors)

.rela.dtors
 *(.rela.dtors)

.rel.got
 *(.rel.got)

.rela.got
 *(.rela.got)

.rel.bss
 *(.rel.bss)

.rela.bss
 *(.rela.bss)

.rel.plt
 *(.rel.plt)

.rela.plt
 *(.rela.plt)

.text           0x0000000000000000     0x6538
 *(.vectors)
 .vectors       0x0000000000000000       0xac /usr/lib/gcc/avr/11.2.0/../../../../avr/lib/avr5/crtatmega32u4.o
                0x0000000000000000                __vectors
                0x0000000000000000                __vector_default
 *(.vectors)
 *(.progmem.gcc*)
                0x00000000000000ac                . = ALIGN (0x2)
                0x00000000000000ac                __trampolines_start = .
 *(.trampolines)
 .trampolines   0x00000000000000ac        0x0 linker stubs
 *(.trampolines*)
                0x00000000000000ac                __trampolines_end = .
 *libprintf_flt.a:*(.progmem.data)
 *libc.a:*(.progmem.data)
 *(.progmem.*)
 .progmem.data.hand_swap_config
                0x00000000000000ac       0x78 .build/obj_sofle_rev1_default/keyboards/sofle/sofle.o
                0x00000000000000ac                hand_swap_config
 .progmem.data.qmk_logo.0
                0x0000000000000124       0x40 .build/obj_sofle_rev1_default/keyboards/sofle/keymaps/default/keymap.o
 .progmem.data.keymaps
                0x0000000000000164      0x258 .build/obj_sofle_rev1_default/keyboards/sofle/keymaps/default/keymap.o
                0x0000000000000164                keymaps
 .progmem.data.__c.0
                0x00000000000003bc       0x12 .build/obj_sofle_rev1_default/quantum/quantum.o
 .progmem.data.__c.1
                0x00000000000003ce       0x11 .build/obj_sofle_rev1_default/quantum/quantum.o
 .progmem.data.__c.0
                0x00000000000003df       0x15 .build/obj_sofle_rev1_default/quantum/action_util.o
 .progmem.data.__c.0
                0x00000000000003f4        0x2 .build/obj_sofle_rev1_default/quantum/keyboard.o
 .progmem.data.__c.1
                0x00000000000003f6        0x5 .build/obj_sofle_rev1_default/quantum/keyboard.o
 .progmem.data.__c.2
                0x00000000000003fb       0x13 .build/obj_sofle_rev1_default/quantum/keyboard.o
 .progmem.data.__c.0
                0x000000000000040e        0x2 .build/obj_sofle_rev1_default/quantum/matrix_common.o
 .progmem.data.__c.1
                0x0000000000000410        0x5 .build/obj_sofle_rev1_default/quantum/matrix_common.o
 .progmem.data.__c.2
                0x0000000000000415        0x3 .build/obj_sofle_rev1_default/quantum/matrix_common.o
 .progmem.data.__c.3
                0x0000000000000418        0x5 .build/obj_sofle_rev1_default/quantum/matrix_common.o
 .progmem.data.__c.4
                0x000000000000041d        0xf .build/obj_sofle_rev1_default/quantum/matrix_common.o
 .progmem.data.__c.0
                0x000000000000042c       0x13 .build/obj_sofle_rev1_default/quantum/split_common/split_util.o
 .progmem.data.__c.1
                0x000000000000043f       0x36 .build/obj_sofle_rev1_default/quantum/split_common/split_util.o
 .progmem.data.__c.1
                0x0000000000000475       0x16 .build/obj_sofle_rev1_default/quantum/split_common/transactions.o
 .progmem.data.__c.6
                0x000000000000048b       0x1d .build/obj_sofle_rev1_default/ssd1306_sh1106.o
 .progmem.data.__c.10
                0x00000000000004a8       0x15 .build/obj_sofle_rev1_default/ssd1306_sh1106.o
 .progmem.data.display_off.11
                0x00000000000004bd        0x2 .build/obj_sofle_rev1_default/ssd1306_sh1106.o
 .progmem.data.__c.12
                0x00000000000004bf       0x14 .build/obj_sofle_rev1_default/ssd1306_sh1106.o
 .progmem.data.display_on.13
                0x00000000000004d3        0x2 .build/obj_sofle_rev1_default/ssd1306_sh1106.o
 .progmem.data.__c.15
                0x00000000000004d5       0x1b .build/obj_sofle_rev1_default/ssd1306_sh1106.o
 .progmem.data.__c.19
                0x00000000000004f0       0x19 .build/obj_sofle_rev1_default/ssd1306_sh1106.o
 .progmem.data.__c.20
                0x0000000000000509       0x23 .build/obj_sofle_rev1_default/ssd1306_sh1106.o
 .progmem.data.__c.22
                0x000000000000052c       0x17 .build/obj_sofle_rev1_default/ssd1306_sh1106.o
 .progmem.data.display_setup2.23
                0x0000000000000543        0xd .build/obj_sofle_rev1_default/ssd1306_sh1106.o
 .progmem.data.__c.24
                0x0000000000000550       0x18 .build/obj_sofle_rev1_default/ssd1306_sh1106.o
 .progmem.data.display_flipped.25
                0x0000000000000568        0x3 .build/obj_sofle_rev1_default/ssd1306_sh1106.o
 .progmem.data.__c.26
                0x000000000000056b       0x26 .build/obj_sofle_rev1_default/ssd1306_sh1106.o
 .progmem.data.display_normal.27
                0x0000000000000591        0x3 .build/obj_sofle_rev1_default/ssd1306_sh1106.o
 .progmem.data.__c.28
                0x0000000000000594       0x1c .build/obj_sofle_rev1_default/ssd1306_sh1106.o
 .progmem.data.display_setup1.29
                0x00000000000005b0        0xd .build/obj_sofle_rev1_default/ssd1306_sh1106.o
 .progmem.data.font
                0x00000000000005bd      0x540 .build/obj_sofle_rev1_default/ssd1306_sh1106.o
 .progmem.data.__c.0
                0x0000000000000afd        0x2 .build/obj_sofle_rev1_default/common/host.o
 .progmem.data.__c.1
                0x0000000000000aff        0x6 .build/obj_sofle_rev1_default/common/host.o
 .progmem.data.__c.2
                0x0000000000000b05       0x12 .build/obj_sofle_rev1_default/common/host.o
 .progmem.data.__c.0
                0x0000000000000b17        0x4 .build/obj_sofle_rev1_default/lufa.o
 .progmem.data.__c.1
                0x0000000000000b1b       0x11 .build/obj_sofle_rev1_default/lufa.o
 .progmem.data.__c.4
                0x0000000000000b2c        0x4 .build/obj_sofle_rev1_default/lufa.o
 .progmem.data.__c.5
                0x0000000000000b30        0x4 .build/obj_sofle_rev1_default/lufa.o
 .progmem.data.__c.6
                0x0000000000000b34        0x4 .build/obj_sofle_rev1_default/lufa.o
 .progmem.data.__c.7
                0x0000000000000b38        0x4 .build/obj_sofle_rev1_default/lufa.o
 .progmem.data.__c.8
                0x0000000000000b3c        0x4 .build/obj_sofle_rev1_default/lufa.o
 .progmem.data.ProductString
                0x0000000000000b40        0xe .build/obj_sofle_rev1_default/usb_descriptor.o
                0x0000000000000b40                ProductString
 .progmem.data.ManufacturerString
                0x0000000000000b4e       0x1c .build/obj_sofle_rev1_default/usb_descriptor.o
                0x0000000000000b4e                ManufacturerString
 .progmem.data.LanguageString
                0x0000000000000b6a        0x4 .build/obj_sofle_rev1_default/usb_descriptor.o
                0x0000000000000b6a                LanguageString
 .progmem.data.ConfigurationDescriptor
                0x0000000000000b6e       0x5b .build/obj_sofle_rev1_default/usb_descriptor.o
                0x0000000000000b6e                ConfigurationDescriptor
 .progmem.data.DeviceDescriptor
                0x0000000000000bc9       0x12 .build/obj_sofle_rev1_default/usb_descriptor.o
                0x0000000000000bc9                DeviceDescriptor
 .progmem.data.ConsoleReport
                0x0000000000000bdb       0x22 .build/obj_sofle_rev1_default/usb_descriptor.o
                0x0000000000000bdb                ConsoleReport
 .progmem.data.SharedReport
                0x0000000000000bfd       0x32 .build/obj_sofle_rev1_default/usb_descriptor.o
                0x0000000000000bfd                SharedReport
 .progmem.data.KeyboardReport
                0x0000000000000c2f       0x40 .build/obj_sofle_rev1_default/usb_descriptor.o
                0x0000000000000c2f                KeyboardReport
                0x0000000000000c70                . = ALIGN (0x2)
 *fill*         0x0000000000000c6f        0x1 
 *(.lowtext)
 *(.lowtext*)
                0x0000000000000c70                __ctors_start = .
 *(.ctors)
                0x0000000000000c70                __ctors_end = .
                0x0000000000000c70                __dtors_start = .
 *(.dtors)
                0x0000000000000c70                __dtors_end = .
 SORT_BY_NAME(*)(.ctors)
 SORT_BY_NAME(*)(.dtors)
 *(.init0)
 .init0         0x0000000000000c70        0x0 /usr/lib/gcc/avr/11.2.0/../../../../avr/lib/avr5/crtatmega32u4.o
                0x0000000000000c70                __init
 *(.init0)
 *(.init1)
 *(.init1)
 *(.init2)
 .init2         0x0000000000000c70        0xc /usr/lib/gcc/avr/11.2.0/../../../../avr/lib/avr5/crtatmega32u4.o
 *(.init2)
 *(.init3)
 .init3         0x0000000000000c7c       0x54 .build/obj_sofle_rev1_default/common/avr/bootloader.o
                0x0000000000000c7c                bootloader_jump_after_watchdog_reset
 *(.init3)
 *(.init4)
 .init4         0x0000000000000cd0       0x16 /usr/lib/gcc/avr/11.2.0/avr5/libgcc.a(_copy_data.o)
                0x0000000000000cd0                __do_copy_data
 .init4         0x0000000000000ce6       0x10 /usr/lib/gcc/avr/11.2.0/avr5/libgcc.a(_clear_bss.o)
                0x0000000000000ce6                __do_clear_bss
 *(.init4)
 *(.init5)
 *(.init5)
 *(.init6)
 *(.init6)
 *(.init7)
 *(.init7)
 *(.init8)
 *(.init8)
 *(.init9)
 .init9         0x0000000000000cf6        0x8 /usr/lib/gcc/avr/11.2.0/../../../../avr/lib/avr5/crtatmega32u4.o
 *(.init9)
 *(.text)
 .text          0x0000000000000cfe        0x4 /usr/lib/gcc/avr/11.2.0/../../../../avr/lib/avr5/crtatmega32u4.o
                0x0000000000000cfe                __vector_38
                0x0000000000000cfe                __vector_22
                0x0000000000000cfe                __vector_28
                0x0000000000000cfe                __vector_1
                0x0000000000000cfe                __vector_32
                0x0000000000000cfe                __vector_34
                0x0000000000000cfe                __vector_24
                0x0000000000000cfe                __bad_interrupt
                0x0000000000000cfe                __vector_6
                0x0000000000000cfe                __vector_31
                0x0000000000000cfe                __vector_35
                0x0000000000000cfe                __vector_39
                0x0000000000000cfe                __vector_23
                0x0000000000000cfe                __vector_30
                0x0000000000000cfe                __vector_25
                0x0000000000000cfe                __vector_13
                0x0000000000000cfe                __vector_17
                0x0000000000000cfe                __vector_19
                0x0000000000000cfe                __vector_7
                0x0000000000000cfe                __vector_41
                0x0000000000000cfe                __vector_27
                0x0000000000000cfe                __vector_5
                0x0000000000000cfe                __vector_33
                0x0000000000000cfe                __vector_37
                0x0000000000000cfe                __vector_4
                0x0000000000000cfe                __vector_9
                0x0000000000000cfe                __vector_2
                0x0000000000000cfe                __vector_15
                0x0000000000000cfe                __vector_36
                0x0000000000000cfe                __vector_29
                0x0000000000000cfe                __vector_40
                0x0000000000000cfe                __vector_8
                0x0000000000000cfe                __vector_26
                0x0000000000000cfe                __vector_14
                0x0000000000000cfe                __vector_16
                0x0000000000000cfe                __vector_18
                0x0000000000000cfe                __vector_20
                0x0000000000000cfe                __vector_42
 .text          0x0000000000000d02      0x15c .build/obj_sofle_rev1_default/common/avr/xprintf.o
                0x0000000000000d02                xputc
                0x0000000000000d1a                xputs
                0x0000000000000d28                xitoa
                0x0000000000000e4c                __xprintf
                0x0000000000000e5e                . = ALIGN (0x2)
 *(.text.*)
 .text.oled_task_user
                0x0000000000000e5e       0x16 .build/obj_sofle_rev1_default/keyboards/sofle/keymaps/default/keymap.o
                0x0000000000000e5e                oled_task_user
 .text.process_record_user
                0x0000000000000e74      0x216 .build/obj_sofle_rev1_default/keyboards/sofle/keymaps/default/keymap.o
                0x0000000000000e74                process_record_user
 .text.encoder_update_user
                0x000000000000108a       0x1c .build/obj_sofle_rev1_default/keyboards/sofle/keymaps/default/keymap.o
                0x000000000000108a                encoder_update_user
 .text.process_action_kb
                0x00000000000010a6        0x4 .build/obj_sofle_rev1_default/quantum/quantum.o
                0x00000000000010a6                process_action_kb
 .text.process_record_kb
                0x00000000000010aa        0x4 .build/obj_sofle_rev1_default/quantum/quantum.o
                0x00000000000010aa                process_record_kb
 .text.post_process_record_user
                0x00000000000010ae        0x2 .build/obj_sofle_rev1_default/quantum/quantum.o
                0x00000000000010ae                post_process_record_user
 .text.post_process_record_kb
                0x00000000000010b0        0x4 .build/obj_sofle_rev1_default/quantum/quantum.o
                0x00000000000010b0                post_process_record_kb
 .text.get_event_keycode
                0x00000000000010b4       0x66 .build/obj_sofle_rev1_default/quantum/quantum.o
                0x00000000000010b4                get_event_keycode
 .text.get_record_keycode
                0x000000000000111a       0x12 .build/obj_sofle_rev1_default/quantum/quantum.o
                0x000000000000111a                get_record_keycode
 .text.pre_process_record_quantum
                0x000000000000112c        0x4 .build/obj_sofle_rev1_default/quantum/quantum.o
                0x000000000000112c                pre_process_record_quantum
 .text.post_process_record_quantum
                0x0000000000001130       0x1a .build/obj_sofle_rev1_default/quantum/quantum.o
                0x0000000000001130                post_process_record_quantum
 .text.set_single_persistent_default_layer
                0x000000000000114a       0x54 .build/obj_sofle_rev1_default/quantum/quantum.o
                0x000000000000114a                set_single_persistent_default_layer
 .text.update_tri_layer_state
                0x000000000000119e       0xdc .build/obj_sofle_rev1_default/quantum/quantum.o
                0x000000000000119e                update_tri_layer_state
 .text.update_tri_layer
                0x000000000000127a       0x4a .build/obj_sofle_rev1_default/quantum/quantum.o
                0x000000000000127a                update_tri_layer
 .text.matrix_init_quantum
                0x00000000000012c4        0xc .build/obj_sofle_rev1_default/quantum/quantum.o
                0x00000000000012c4                matrix_init_quantum
 .text.matrix_scan_quantum
                0x00000000000012d0        0x4 .build/obj_sofle_rev1_default/quantum/quantum.o
                0x00000000000012d0                matrix_scan_quantum
 .text.shutdown_user
                0x00000000000012d4        0x2 .build/obj_sofle_rev1_default/quantum/quantum.o
                0x00000000000012d4                shutdown_user
 .text.reset_keyboard
                0x00000000000012d6       0x1e .build/obj_sofle_rev1_default/quantum/quantum.o
                0x00000000000012d6                reset_keyboard
 .text.process_record_quantum
                0x00000000000012f4       0xd0 .build/obj_sofle_rev1_default/quantum/quantum.o
                0x00000000000012f4                process_record_quantum
 .text.bitrev   0x00000000000013c4       0x28 .build/obj_sofle_rev1_default/quantum/bitwise.o
                0x00000000000013c4                bitrev
 .text.led_set_user
                0x00000000000013ec        0x2 .build/obj_sofle_rev1_default/quantum/led.o
                0x00000000000013ec                led_set_user
 .text.led_set_kb
                0x00000000000013ee        0x4 .build/obj_sofle_rev1_default/quantum/led.o
                0x00000000000013ee                led_set_kb
 .text.led_update_user
                0x00000000000013f2        0x4 .build/obj_sofle_rev1_default/quantum/led.o
                0x00000000000013f2                led_update_user
 .text.led_update_kb
                0x00000000000013f6        0x4 .build/obj_sofle_rev1_default/quantum/led.o
                0x00000000000013f6                led_update_kb
 .text.led_init_ports
                0x00000000000013fa        0x2 .build/obj_sofle_rev1_default/quantum/led.o
                0x00000000000013fa                led_init_ports
 .text.led_set  0x00000000000013fc       0x10 .build/obj_sofle_rev1_default/quantum/led.o
                0x00000000000013fc                led_set
 .text.process_hand_swap
                0x000000000000140c       0x6a .build/obj_sofle_rev1_default/quantum/action.o
                0x000000000000140c                process_hand_swap
 .text.action_exec
                0x0000000000001476       0xa6 .build/obj_sofle_rev1_default/quantum/action.o
                0x0000000000001476                action_exec
 .text.process_record_tap_hint
                0x000000000000151c       0x28 .build/obj_sofle_rev1_default/quantum/action.o
                0x000000000000151c                process_record_tap_hint
 .text.register_code
                0x0000000000001544       0x88 .build/obj_sofle_rev1_default/quantum/action.o
                0x0000000000001544                register_code
 .text.unregister_code
                0x00000000000015cc       0x50 .build/obj_sofle_rev1_default/quantum/action.o
                0x00000000000015cc                unregister_code
 .text.tap_code_delay
                0x000000000000161c       0x2e .build/obj_sofle_rev1_default/quantum/action.o
                0x000000000000161c                tap_code_delay
 .text.tap_code
                0x000000000000164a       0x10 .build/obj_sofle_rev1_default/quantum/action.o
                0x000000000000164a                tap_code
 .text.register_mods
                0x000000000000165a        0xe .build/obj_sofle_rev1_default/quantum/action.o
                0x000000000000165a                register_mods
 .text.unregister_mods
                0x0000000000001668        0xe .build/obj_sofle_rev1_default/quantum/action.o
                0x0000000000001668                unregister_mods
 .text.process_action
                0x0000000000001676      0x5a8 .build/obj_sofle_rev1_default/quantum/action.o
                0x0000000000001676                process_action
 .text.process_record_handler
                0x0000000000001c1e       0x2e .build/obj_sofle_rev1_default/quantum/action.o
                0x0000000000001c1e                process_record_handler
 .text.process_record
                0x0000000000001c4c       0x50 .build/obj_sofle_rev1_default/quantum/action.o
                0x0000000000001c4c                process_record
 .text.clear_keyboard_but_mods_and_keys
                0x0000000000001c9c       0x1c .build/obj_sofle_rev1_default/quantum/action.o
                0x0000000000001c9c                clear_keyboard_but_mods_and_keys
 .text.clear_keyboard_but_mods
                0x0000000000001cb8        0x8 .build/obj_sofle_rev1_default/quantum/action.o
                0x0000000000001cb8                clear_keyboard_but_mods
 .text.clear_keyboard
                0x0000000000001cc0        0x8 .build/obj_sofle_rev1_default/quantum/action.o
                0x0000000000001cc0                clear_keyboard
 .text.is_tap_action
                0x0000000000001cc8       0x52 .build/obj_sofle_rev1_default/quantum/action.o
                0x0000000000001cc8                is_tap_action
 .text.is_tap_record
                0x0000000000001d1a        0xe .build/obj_sofle_rev1_default/quantum/action.o
                0x0000000000001d1a                is_tap_record
 .text.debug_event
                0x0000000000001d28       0x1e .build/obj_sofle_rev1_default/quantum/action.o
                0x0000000000001d28                debug_event
 .text.debug_record
                0x0000000000001d46       0x20 .build/obj_sofle_rev1_default/quantum/action.o
                0x0000000000001d46                debug_record
 .text.default_layer_state_set_user
                0x0000000000001d66        0x2 .build/obj_sofle_rev1_default/quantum/action_layer.o
                0x0000000000001d66                default_layer_state_set_user
 .text.default_layer_state_set_kb
                0x0000000000001d68        0x4 .build/obj_sofle_rev1_default/quantum/action_layer.o
                0x0000000000001d68                default_layer_state_set_kb
 .text.default_layer_state_set
                0x0000000000001d6c       0x18 .build/obj_sofle_rev1_default/quantum/action_layer.o
 .text.default_layer_debug
                0x0000000000001d84        0x2 .build/obj_sofle_rev1_default/quantum/action_layer.o
                0x0000000000001d84                default_layer_debug
 .text.default_layer_set
                0x0000000000001d86        0x4 .build/obj_sofle_rev1_default/quantum/action_layer.o
                0x0000000000001d86                default_layer_set
 .text.default_layer_or
                0x0000000000001d8a       0x50 .build/obj_sofle_rev1_default/quantum/action_layer.o
                0x0000000000001d8a                default_layer_or
 .text.default_layer_and
                0x0000000000001dda       0x50 .build/obj_sofle_rev1_default/quantum/action_layer.o
                0x0000000000001dda                default_layer_and
 .text.default_layer_xor
                0x0000000000001e2a       0x50 .build/obj_sofle_rev1_default/quantum/action_layer.o
                0x0000000000001e2a                default_layer_xor
 .text.layer_state_set_user
                0x0000000000001e7a        0x4 .build/obj_sofle_rev1_default/quantum/action_layer.o
                0x0000000000001e7a                layer_state_set_user
 .text.layer_state_set_kb
                0x0000000000001e7e        0x4 .build/obj_sofle_rev1_default/quantum/action_layer.o
                0x0000000000001e7e                layer_state_set_kb
 .text.layer_state_set
                0x0000000000001e82       0x18 .build/obj_sofle_rev1_default/quantum/action_layer.o
                0x0000000000001e82                layer_state_set
 .text.layer_clear
                0x0000000000001e9a        0xa .build/obj_sofle_rev1_default/quantum/action_layer.o
                0x0000000000001e9a                layer_clear
 .text.layer_move
                0x0000000000001ea4       0x4a .build/obj_sofle_rev1_default/quantum/action_layer.o
                0x0000000000001ea4                layer_move
 .text.layer_on
                0x0000000000001eee       0x62 .build/obj_sofle_rev1_default/quantum/action_layer.o
                0x0000000000001eee                layer_on
 .text.layer_off
                0x0000000000001f50       0x6a .build/obj_sofle_rev1_default/quantum/action_layer.o
                0x0000000000001f50                layer_off
 .text.layer_invert
                0x0000000000001fba       0x62 .build/obj_sofle_rev1_default/quantum/action_layer.o
                0x0000000000001fba                layer_invert
 .text.layer_or
                0x000000000000201c       0x50 .build/obj_sofle_rev1_default/quantum/action_layer.o
                0x000000000000201c                layer_or
 .text.layer_and
                0x000000000000206c       0x50 .build/obj_sofle_rev1_default/quantum/action_layer.o
                0x000000000000206c                layer_and
 .text.layer_xor
                0x00000000000020bc       0x50 .build/obj_sofle_rev1_default/quantum/action_layer.o
                0x00000000000020bc                layer_xor
 .text.layer_debug
                0x000000000000210c        0x2 .build/obj_sofle_rev1_default/quantum/action_layer.o
                0x000000000000210c                layer_debug
 .text.update_source_layers_cache
                0x000000000000210e       0x5c .build/obj_sofle_rev1_default/quantum/action_layer.o
                0x000000000000210e                update_source_layers_cache
 .text.read_source_layers_cache
                0x000000000000216a       0x52 .build/obj_sofle_rev1_default/quantum/action_layer.o
                0x000000000000216a                read_source_layers_cache
 .text.layer_switch_get_layer
                0x00000000000021bc       0x84 .build/obj_sofle_rev1_default/quantum/action_layer.o
                0x00000000000021bc                layer_switch_get_layer
 .text.layer_switch_get_action
                0x0000000000002240       0x18 .build/obj_sofle_rev1_default/quantum/action_layer.o
                0x0000000000002240                layer_switch_get_action
 .text.store_or_get_action
                0x0000000000002258       0x54 .build/obj_sofle_rev1_default/quantum/action_layer.o
                0x0000000000002258                store_or_get_action
 .text.debug_waiting_buffer
                0x00000000000022ac       0x42 .build/obj_sofle_rev1_default/quantum/action_tapping.o
 .text.debug_tapping_key
                0x00000000000022ee       0x1c .build/obj_sofle_rev1_default/quantum/action_tapping.o
 .text.waiting_buffer_scan_tap
                0x000000000000230a       0xac .build/obj_sofle_rev1_default/quantum/action_tapping.o
 .text.process_tapping
                0x00000000000023b6      0x31e .build/obj_sofle_rev1_default/quantum/action_tapping.o
 .text.action_tapping_process
                0x00000000000026d4      0x134 .build/obj_sofle_rev1_default/quantum/action_tapping.o
                0x00000000000026d4                action_tapping_process
 .text.add_key  0x0000000000002808        0xe .build/obj_sofle_rev1_default/quantum/action_util.o
                0x0000000000002808                add_key
 .text.del_key  0x0000000000002816        0xe .build/obj_sofle_rev1_default/quantum/action_util.o
                0x0000000000002816                del_key
 .text.clear_keys
                0x0000000000002824        0xc .build/obj_sofle_rev1_default/quantum/action_util.o
                0x0000000000002824                clear_keys
 .text.get_oneshot_layer
                0x0000000000002830        0xc .build/obj_sofle_rev1_default/quantum/action_util.o
                0x0000000000002830                get_oneshot_layer
 .text.get_oneshot_layer_state
                0x000000000000283c        0x8 .build/obj_sofle_rev1_default/quantum/action_util.o
                0x000000000000283c                get_oneshot_layer_state
 .text.set_oneshot_swaphands
                0x0000000000002844        0xe .build/obj_sofle_rev1_default/quantum/action_util.o
                0x0000000000002844                set_oneshot_swaphands
 .text.clear_oneshot_swaphands
                0x0000000000002852        0xa .build/obj_sofle_rev1_default/quantum/action_util.o
                0x0000000000002852                clear_oneshot_swaphands
 .text.release_oneshot_swaphands
                0x000000000000285c       0x1a .build/obj_sofle_rev1_default/quantum/action_util.o
                0x000000000000285c                release_oneshot_swaphands
 .text.use_oneshot_swaphands
                0x0000000000002876       0x1a .build/obj_sofle_rev1_default/quantum/action_util.o
                0x0000000000002876                use_oneshot_swaphands
 .text.is_oneshot_layer_active
                0x0000000000002890        0xe .build/obj_sofle_rev1_default/quantum/action_util.o
                0x0000000000002890                is_oneshot_layer_active
 .text.oneshot_set
                0x000000000000289e       0x4a .build/obj_sofle_rev1_default/quantum/action_util.o
                0x000000000000289e                oneshot_set
 .text.oneshot_toggle
                0x00000000000028e8       0x12 .build/obj_sofle_rev1_default/quantum/action_util.o
                0x00000000000028e8                oneshot_toggle
 .text.oneshot_enable
                0x00000000000028fa        0x6 .build/obj_sofle_rev1_default/quantum/action_util.o
                0x00000000000028fa                oneshot_enable
 .text.oneshot_disable
                0x0000000000002900        0x6 .build/obj_sofle_rev1_default/quantum/action_util.o
                0x0000000000002900                oneshot_disable
 .text.get_mods
                0x0000000000002906        0x6 .build/obj_sofle_rev1_default/quantum/action_util.o
                0x0000000000002906                get_mods
 .text.add_mods
                0x000000000000290c        0xc .build/obj_sofle_rev1_default/quantum/action_util.o
                0x000000000000290c                add_mods
 .text.del_mods
                0x0000000000002918       0x10 .build/obj_sofle_rev1_default/quantum/action_util.o
                0x0000000000002918                del_mods
 .text.clear_mods
                0x0000000000002928        0x6 .build/obj_sofle_rev1_default/quantum/action_util.o
                0x0000000000002928                clear_mods
 .text.add_weak_mods
                0x000000000000292e        0xc .build/obj_sofle_rev1_default/quantum/action_util.o
                0x000000000000292e                add_weak_mods
 .text.del_weak_mods
                0x000000000000293a       0x10 .build/obj_sofle_rev1_default/quantum/action_util.o
                0x000000000000293a                del_weak_mods
 .text.clear_weak_mods
                0x000000000000294a        0x6 .build/obj_sofle_rev1_default/quantum/action_util.o
                0x000000000000294a                clear_weak_mods
 .text.clear_macro_mods
                0x0000000000002950        0x6 .build/obj_sofle_rev1_default/quantum/action_util.o
                0x0000000000002950                clear_macro_mods
 .text.get_oneshot_mods
                0x0000000000002956        0x6 .build/obj_sofle_rev1_default/quantum/action_util.o
                0x0000000000002956                get_oneshot_mods
 .text.oneshot_mods_changed_user
                0x000000000000295c        0x2 .build/obj_sofle_rev1_default/quantum/action_util.o
                0x000000000000295c                oneshot_mods_changed_user
 .text.oneshot_mods_changed_kb
                0x000000000000295e        0x4 .build/obj_sofle_rev1_default/quantum/action_util.o
                0x000000000000295e                oneshot_mods_changed_kb
 .text.set_oneshot_mods
                0x0000000000002962       0x1a .build/obj_sofle_rev1_default/quantum/action_util.o
                0x0000000000002962                set_oneshot_mods
 .text.clear_oneshot_mods
                0x000000000000297c       0x14 .build/obj_sofle_rev1_default/quantum/action_util.o
                0x000000000000297c                clear_oneshot_mods
 .text.send_keyboard_report
                0x0000000000002990       0x66 .build/obj_sofle_rev1_default/quantum/action_util.o
                0x0000000000002990                send_keyboard_report
 .text.oneshot_layer_changed_user
                0x00000000000029f6        0x2 .build/obj_sofle_rev1_default/quantum/action_util.o
                0x00000000000029f6                oneshot_layer_changed_user
 .text.oneshot_layer_changed_kb
                0x00000000000029f8        0x4 .build/obj_sofle_rev1_default/quantum/action_util.o
                0x00000000000029f8                oneshot_layer_changed_kb
 .text.set_oneshot_layer
                0x00000000000029fc       0x2c .build/obj_sofle_rev1_default/quantum/action_util.o
                0x00000000000029fc                set_oneshot_layer
 .text.reset_oneshot_layer
                0x0000000000002a28        0xa .build/obj_sofle_rev1_default/quantum/action_util.o
                0x0000000000002a28                reset_oneshot_layer
 .text.clear_oneshot_layer_state
                0x0000000000002a32       0x38 .build/obj_sofle_rev1_default/quantum/action_util.o
                0x0000000000002a32                clear_oneshot_layer_state
 .text.eeconfig_is_enabled
                0x0000000000002a6a       0x16 .build/obj_sofle_rev1_default/quantum/eeconfig.o
                0x0000000000002a6a                eeconfig_is_enabled
 .text.eeconfig_read_debug
                0x0000000000002a80        0x8 .build/obj_sofle_rev1_default/quantum/eeconfig.o
                0x0000000000002a80                eeconfig_read_debug
 .text.eeconfig_read_default_layer
                0x0000000000002a88        0x8 .build/obj_sofle_rev1_default/quantum/eeconfig.o
                0x0000000000002a88                eeconfig_read_default_layer
 .text.eeconfig_update_default_layer
                0x0000000000002a90        0xa .build/obj_sofle_rev1_default/quantum/eeconfig.o
                0x0000000000002a90                eeconfig_update_default_layer
 .text.eeconfig_read_keymap
                0x0000000000002a9a       0x1c .build/obj_sofle_rev1_default/quantum/eeconfig.o
                0x0000000000002a9a                eeconfig_read_keymap
 .text.eeconfig_update_keymap
                0x0000000000002ab6       0x1a .build/obj_sofle_rev1_default/quantum/eeconfig.o
                0x0000000000002ab6                eeconfig_update_keymap
 .text.eeconfig_update_kb
                0x0000000000002ad0        0xc .build/obj_sofle_rev1_default/quantum/eeconfig.o
                0x0000000000002ad0                eeconfig_update_kb
 .text.eeconfig_update_user
                0x0000000000002adc        0xc .build/obj_sofle_rev1_default/quantum/eeconfig.o
                0x0000000000002adc                eeconfig_update_user
 .text.eeconfig_init_user
                0x0000000000002ae8        0xa .build/obj_sofle_rev1_default/quantum/eeconfig.o
                0x0000000000002ae8                eeconfig_init_user
 .text.eeconfig_init_kb
                0x0000000000002af2        0xe .build/obj_sofle_rev1_default/quantum/eeconfig.o
                0x0000000000002af2                eeconfig_init_kb
 .text.eeconfig_init_quantum
                0x0000000000002b00       0xbe .build/obj_sofle_rev1_default/quantum/eeconfig.o
                0x0000000000002b00                eeconfig_init_quantum
 .text.eeconfig_init
                0x0000000000002bbe        0x4 .build/obj_sofle_rev1_default/quantum/eeconfig.o
                0x0000000000002bbe                eeconfig_init
 .text.eeconfig_update_handedness
                0x0000000000002bc2        0xa .build/obj_sofle_rev1_default/quantum/eeconfig.o
                0x0000000000002bc2                eeconfig_update_handedness
 .text.last_matrix_activity_trigger
                0x0000000000002bcc       0x26 .build/obj_sofle_rev1_default/quantum/keyboard.o
                0x0000000000002bcc                last_matrix_activity_trigger
 .text.last_encoder_activity_trigger
                0x0000000000002bf2       0x26 .build/obj_sofle_rev1_default/quantum/keyboard.o
                0x0000000000002bf2                last_encoder_activity_trigger
 .text.disable_jtag
                0x0000000000002c18        0xe .build/obj_sofle_rev1_default/quantum/keyboard.o
                0x0000000000002c18                disable_jtag
 .text.keyboard_pre_init_user
                0x0000000000002c26        0x2 .build/obj_sofle_rev1_default/quantum/keyboard.o
                0x0000000000002c26                keyboard_pre_init_user
 .text.matrix_setup
                0x0000000000002c28        0x2 .build/obj_sofle_rev1_default/quantum/keyboard.o
                0x0000000000002c28                matrix_setup
 .text.keyboard_pre_init_kb
                0x0000000000002c2a        0x4 .build/obj_sofle_rev1_default/quantum/keyboard.o
                0x0000000000002c2a                keyboard_pre_init_kb
 .text.keyboard_post_init_user
                0x0000000000002c2e        0x2 .build/obj_sofle_rev1_default/quantum/keyboard.o
                0x0000000000002c2e                keyboard_post_init_user
 .text.keyboard_post_init_kb
                0x0000000000002c30        0x4 .build/obj_sofle_rev1_default/quantum/keyboard.o
                0x0000000000002c30                keyboard_post_init_kb
 .text.keyboard_setup
                0x0000000000002c34       0x14 .build/obj_sofle_rev1_default/quantum/keyboard.o
                0x0000000000002c34                keyboard_setup
 .text.should_process_keypress
                0x0000000000002c48        0x4 .build/obj_sofle_rev1_default/quantum/keyboard.o
                0x0000000000002c48                should_process_keypress
 .text.housekeeping_task_kb
                0x0000000000002c4c        0x2 .build/obj_sofle_rev1_default/quantum/keyboard.o
                0x0000000000002c4c                housekeeping_task_kb
 .text.housekeeping_task_user
                0x0000000000002c4e        0x2 .build/obj_sofle_rev1_default/quantum/keyboard.o
                0x0000000000002c4e                housekeeping_task_user
 .text.housekeeping_task
                0x0000000000002c50        0x8 .build/obj_sofle_rev1_default/quantum/keyboard.o
                0x0000000000002c50                housekeeping_task
 .text.keyboard_init
                0x0000000000002c58       0x1e .build/obj_sofle_rev1_default/quantum/keyboard.o
                0x0000000000002c58                keyboard_init
 .text.keyboard_set_leds
                0x0000000000002c76       0x50 .build/obj_sofle_rev1_default/quantum/keyboard.o
                0x0000000000002c76                keyboard_set_leds
 .text.keyboard_task
                0x0000000000002cc6      0x150 .build/obj_sofle_rev1_default/quantum/keyboard.o
                0x0000000000002cc6                keyboard_task
 .text.action_for_keycode
                0x0000000000002e16      0x1f2 .build/obj_sofle_rev1_default/quantum/keymap_common.o
                0x0000000000002e16                action_for_keycode
 .text.keymap_key_to_keycode
                0x0000000000003008       0x28 .build/obj_sofle_rev1_default/quantum/keymap_common.o
                0x0000000000003008                keymap_key_to_keycode
 .text.action_for_key
                0x0000000000003030        0x8 .build/obj_sofle_rev1_default/quantum/keymap_common.o
                0x0000000000003030                action_for_key
 .text.keycode_config
                0x0000000000003038      0x130 .build/obj_sofle_rev1_default/quantum/keycode_config.o
                0x0000000000003038                keycode_config
 .text.mod_config
                0x0000000000003168       0x86 .build/obj_sofle_rev1_default/quantum/keycode_config.o
                0x0000000000003168                mod_config
 .text.bootmagic
                0x00000000000031ee        0x2 .build/obj_sofle_rev1_default/quantum/bootmagic/magic.o
                0x00000000000031ee                bootmagic
 .text.magic    0x00000000000031f0       0x70 .build/obj_sofle_rev1_default/quantum/bootmagic/magic.o
                0x00000000000031f0                magic
 .text.matrix_init_user
                0x0000000000003260        0x2 .build/obj_sofle_rev1_default/quantum/matrix_common.o
                0x0000000000003260                matrix_init_user
 .text.matrix_init_kb
                0x0000000000003262        0x4 .build/obj_sofle_rev1_default/quantum/matrix_common.o
                0x0000000000003262                matrix_init_kb
 .text.matrix_scan_user
                0x0000000000003266        0x2 .build/obj_sofle_rev1_default/quantum/matrix_common.o
                0x0000000000003266                matrix_scan_user
 .text.matrix_scan_kb
                0x0000000000003268        0x4 .build/obj_sofle_rev1_default/quantum/matrix_common.o
                0x0000000000003268                matrix_scan_kb
 .text.matrix_get_row
                0x000000000000326c        0xc .build/obj_sofle_rev1_default/quantum/matrix_common.o
                0x000000000000326c                matrix_get_row
 .text.matrix_print
                0x0000000000003278       0x8c .build/obj_sofle_rev1_default/quantum/matrix_common.o
                0x0000000000003278                matrix_print
 .text.matrix_io_delay
                0x0000000000003304        0x8 .build/obj_sofle_rev1_default/quantum/matrix_common.o
                0x0000000000003304                matrix_io_delay
 .text.matrix_output_select_delay
                0x000000000000330c        0x4 .build/obj_sofle_rev1_default/quantum/matrix_common.o
                0x000000000000330c                matrix_output_select_delay
 .text.matrix_output_unselect_delay
                0x0000000000003310        0x4 .build/obj_sofle_rev1_default/quantum/matrix_common.o
                0x0000000000003310                matrix_output_unselect_delay
 .text.setPinInputHigh_atomic
                0x0000000000003314       0x32 .build/obj_sofle_rev1_default/quantum/matrix.o
 .text.matrix_slave_scan_user
                0x0000000000003346        0x2 .build/obj_sofle_rev1_default/quantum/matrix.o
                0x0000000000003346                matrix_slave_scan_user
 .text.matrix_slave_scan_kb
                0x0000000000003348        0x4 .build/obj_sofle_rev1_default/quantum/matrix.o
                0x0000000000003348                matrix_slave_scan_kb
 .text.matrix_init_pins
                0x000000000000334c       0x36 .build/obj_sofle_rev1_default/quantum/matrix.o
                0x000000000000334c                matrix_init_pins
 .text.matrix_read_cols_on_row
                0x0000000000003382       0xd6 .build/obj_sofle_rev1_default/quantum/matrix.o
                0x0000000000003382                matrix_read_cols_on_row
 .text.matrix_init
                0x0000000000003458       0x4c .build/obj_sofle_rev1_default/quantum/matrix.o
                0x0000000000003458                matrix_init
 .text.matrix_post_scan
                0x00000000000034a4       0xd2 .build/obj_sofle_rev1_default/quantum/matrix.o
                0x00000000000034a4                matrix_post_scan
 .text.matrix_scan
                0x0000000000003576       0xb8 .build/obj_sofle_rev1_default/quantum/matrix.o
                0x0000000000003576                matrix_scan
 .text.debounce_init
                0x000000000000362e        0x2 .build/obj_sofle_rev1_default/quantum/debounce/sym_defer_g.o
                0x000000000000362e                debounce_init
 .text.debounce
                0x0000000000003630       0x6c .build/obj_sofle_rev1_default/quantum/debounce/sym_defer_g.o
                0x0000000000003630                debounce
 .text.is_keyboard_master
                0x000000000000369c       0x30 .build/obj_sofle_rev1_default/quantum/split_common/split_util.o
                0x000000000000369c                is_keyboard_master
 .text.is_keyboard_left
                0x00000000000036cc        0x4 .build/obj_sofle_rev1_default/quantum/split_common/split_util.o
                0x00000000000036cc                is_keyboard_left
 .text.split_pre_init
                0x00000000000036d0       0x14 .build/obj_sofle_rev1_default/quantum/split_common/split_util.o
                0x00000000000036d0                split_pre_init
 .text.split_post_init
                0x00000000000036e4        0xe .build/obj_sofle_rev1_default/quantum/split_common/split_util.o
                0x00000000000036e4                split_post_init
 .text.is_transport_connected
                0x00000000000036f2        0xe .build/obj_sofle_rev1_default/quantum/split_common/split_util.o
                0x00000000000036f2                is_transport_connected
 .text.transport_master_if_connected
                0x0000000000003700       0x9c .build/obj_sofle_rev1_default/quantum/split_common/split_util.o
                0x0000000000003700                transport_master_if_connected
 .text.transport_master_init
                0x000000000000379c        0x4 .build/obj_sofle_rev1_default/quantum/split_common/transport.o
                0x000000000000379c                transport_master_init
 .text.transport_slave_init
                0x00000000000037a0        0x4 .build/obj_sofle_rev1_default/quantum/split_common/transport.o
                0x00000000000037a0                transport_slave_init
 .text.transport_execute_transaction
                0x00000000000037a4       0xb0 .build/obj_sofle_rev1_default/quantum/split_common/transport.o
                0x00000000000037a4                transport_execute_transaction
 .text.transport_master
                0x0000000000003854        0x4 .build/obj_sofle_rev1_default/quantum/split_common/transport.o
                0x0000000000003854                transport_master
 .text.transport_slave
                0x0000000000003858        0x4 .build/obj_sofle_rev1_default/quantum/split_common/transport.o
                0x0000000000003858                transport_slave
 .text.sync_timer_handlers_master
                0x000000000000385c       0x9c .build/obj_sofle_rev1_default/quantum/split_common/transactions.o
 .text.transaction_handler_master
                0x00000000000038f8       0xbe .build/obj_sofle_rev1_default/quantum/split_common/transactions.o
 .text.read_if_checksum_mismatch
                0x00000000000039b6       0xf2 .build/obj_sofle_rev1_default/quantum/split_common/transactions.o
 .text.encoder_handlers_master
                0x0000000000003aa8       0x56 .build/obj_sofle_rev1_default/quantum/split_common/transactions.o
 .text.slave_matrix_handlers_master
                0x0000000000003afe       0x82 .build/obj_sofle_rev1_default/quantum/split_common/transactions.o
 .text.transactions_master
                0x0000000000003b80       0x5a .build/obj_sofle_rev1_default/quantum/split_common/transactions.o
                0x0000000000003b80                transactions_master
 .text.transactions_slave
                0x0000000000003bda       0xa0 .build/obj_sofle_rev1_default/quantum/split_common/transactions.o
                0x0000000000003bda                transactions_slave
 .text.startup.main
                0x0000000000003c7a       0x16 .build/obj_sofle_rev1_default/quantum/main.o
                0x0000000000003c7a                main
 .text.encoder_update_kb
                0x0000000000003c90        0x4 .build/obj_sofle_rev1_default/quantum/encoder.o
                0x0000000000003c90                encoder_update_kb
 .text.encoder_init
                0x0000000000003c94       0xca .build/obj_sofle_rev1_default/quantum/encoder.o
                0x0000000000003c94                encoder_init
 .text.encoder_read
                0x0000000000003d5e       0xcc .build/obj_sofle_rev1_default/quantum/encoder.o
                0x0000000000003d5e                encoder_read
 .text.encoder_state_raw
                0x0000000000003e2a       0x12 .build/obj_sofle_rev1_default/quantum/encoder.o
                0x0000000000003e2a                encoder_state_raw
 .text.encoder_update_raw
                0x0000000000003e3c       0x7e .build/obj_sofle_rev1_default/quantum/encoder.o
                0x0000000000003e3c                encoder_update_raw
 .text.crc_init
                0x0000000000003eba        0x2 .build/obj_sofle_rev1_default/crc.o
                0x0000000000003eba                crc_init
 .text.crc8     0x0000000000003ebc       0x2e .build/obj_sofle_rev1_default/crc.o
                0x0000000000003ebc                crc8
 .text.i2c_transmit_P.constprop.0
                0x0000000000003eea       0x5e .build/obj_sofle_rev1_default/ssd1306_sh1106.o
 .text.oled_init_user
                0x0000000000003f48        0x2 .build/obj_sofle_rev1_default/ssd1306_sh1106.o
                0x0000000000003f48                oled_init_user
 .text.oled_clear
                0x0000000000003f4a       0x2a .build/obj_sofle_rev1_default/ssd1306_sh1106.o
                0x0000000000003f4a                oled_clear
 .text.oled_init
                0x0000000000003f74       0xc4 .build/obj_sofle_rev1_default/ssd1306_sh1106.o
                0x0000000000003f74                oled_init
 .text.oled_set_cursor
                0x0000000000004038       0x2e .build/obj_sofle_rev1_default/ssd1306_sh1106.o
                0x0000000000004038                oled_set_cursor
 .text.oled_advance_char
                0x0000000000004066       0x3e .build/obj_sofle_rev1_default/ssd1306_sh1106.o
                0x0000000000004066                oled_advance_char
 .text.oled_write_char
                0x00000000000040a4       0xf4 .build/obj_sofle_rev1_default/ssd1306_sh1106.o
                0x00000000000040a4                oled_write_char
 .text.oled_advance_page
                0x0000000000004198       0x64 .build/obj_sofle_rev1_default/ssd1306_sh1106.o
                0x0000000000004198                oled_advance_page
 .text.oled_write_P
                0x00000000000041fc       0x24 .build/obj_sofle_rev1_default/ssd1306_sh1106.o
                0x00000000000041fc                oled_write_P
 .text.oled_on  0x0000000000004220       0x70 .build/obj_sofle_rev1_default/ssd1306_sh1106.o
                0x0000000000004220                oled_on
 .text.oled_render
                0x0000000000004290      0x226 .build/obj_sofle_rev1_default/ssd1306_sh1106.o
                0x0000000000004290                oled_render
 .text.oled_off
                0x00000000000044b6       0x3e .build/obj_sofle_rev1_default/ssd1306_sh1106.o
                0x00000000000044b6                oled_off
 .text.oled_scroll_left
                0x00000000000044f4       0x92 .build/obj_sofle_rev1_default/ssd1306_sh1106.o
                0x00000000000044f4                oled_scroll_left
 .text.oled_task
                0x0000000000004586       0xa2 .build/obj_sofle_rev1_default/ssd1306_sh1106.o
                0x0000000000004586                oled_task
 .text.perform_space_cadet
                0x0000000000004628       0xd8 .build/obj_sofle_rev1_default/quantum/process_keycode/process_space_cadet.o
                0x0000000000004628                perform_space_cadet
 .text.process_space_cadet
                0x0000000000004700       0xaa .build/obj_sofle_rev1_default/quantum/process_keycode/process_space_cadet.o
                0x0000000000004700                process_space_cadet
 .text.process_magic
                0x00000000000047aa      0x1b0 .build/obj_sofle_rev1_default/quantum/process_keycode/process_magic.o
                0x00000000000047aa                process_magic
 .text.process_grave_esc
                0x000000000000495a       0x54 .build/obj_sofle_rev1_default/quantum/process_keycode/process_grave_esc.o
                0x000000000000495a                process_grave_esc
 .text.i2c_init
                0x00000000000049ae        0xc .build/obj_sofle_rev1_default/i2c_master.a(i2c_master.o)
                0x00000000000049ae                i2c_init
 .text.i2c_start
                0x00000000000049ba       0xf2 .build/obj_sofle_rev1_default/i2c_master.a(i2c_master.o)
                0x00000000000049ba                i2c_start
 .text.i2c_write
                0x0000000000004aac       0x5e .build/obj_sofle_rev1_default/i2c_master.a(i2c_master.o)
                0x0000000000004aac                i2c_write
 .text.i2c_transmit
                0x0000000000004b0a       0x5a .build/obj_sofle_rev1_default/i2c_master.a(i2c_master.o)
                0x0000000000004b0a                i2c_transmit
 .text.i2c_writeReg
                0x0000000000004b64       0x62 .build/obj_sofle_rev1_default/i2c_master.a(i2c_master.o)
                0x0000000000004b64                i2c_writeReg
 .text.i2c_stop
                0x0000000000004bc6        0x8 .build/obj_sofle_rev1_default/i2c_master.a(i2c_master.o)
                0x0000000000004bc6                i2c_stop
 .text.sync_recv
                0x0000000000004bce       0x10 .build/obj_sofle_rev1_default/serial.a(serial.o)
 .text.sync_send
                0x0000000000004bde        0xc .build/obj_sofle_rev1_default/serial.a(serial.o)
 .text.serial_read_chunk.constprop.0
                0x0000000000004bea       0x58 .build/obj_sofle_rev1_default/serial.a(serial.o)
 .text.serial_recive_packet
                0x0000000000004c42       0x4e .build/obj_sofle_rev1_default/serial.a(serial.o)
 .text.soft_serial_initiator_init
                0x0000000000004c90        0x6 .build/obj_sofle_rev1_default/serial.a(serial.o)
                0x0000000000004c90                soft_serial_initiator_init
 .text.soft_serial_target_init
                0x0000000000004c96       0x12 .build/obj_sofle_rev1_default/serial.a(serial.o)
                0x0000000000004c96                soft_serial_target_init
 .text.serial_write_chunk
                0x0000000000004ca8       0x42 .build/obj_sofle_rev1_default/serial.a(serial.o)
                0x0000000000004ca8                serial_write_chunk
 .text.serial_send_packet
                0x0000000000004cea       0x34 .build/obj_sofle_rev1_default/serial.a(serial.o)
 .text.__vector_3
                0x0000000000004d1e      0x18e .build/obj_sofle_rev1_default/serial.a(serial.o)
                0x0000000000004d1e                __vector_3
 .text.soft_serial_transaction
                0x0000000000004eac      0x168 .build/obj_sofle_rev1_default/serial.a(serial.o)
                0x0000000000004eac                soft_serial_transaction
 .text.host_set_driver
                0x0000000000005014        0xa .build/obj_sofle_rev1_default/common/host.o
                0x0000000000005014                host_set_driver
 .text.host_keyboard_leds
                0x000000000000501e       0x26 .build/obj_sofle_rev1_default/common/host.o
                0x000000000000501e                host_keyboard_leds
 .text.host_keyboard_send
                0x0000000000005044       0x92 .build/obj_sofle_rev1_default/common/host.o
                0x0000000000005044                host_keyboard_send
 .text.host_system_send
                0x00000000000050d6       0x2c .build/obj_sofle_rev1_default/common/host.o
                0x00000000000050d6                host_system_send
 .text.host_consumer_send
                0x0000000000005102       0x2c .build/obj_sofle_rev1_default/common/host.o
                0x0000000000005102                host_consumer_send
 .text.has_anykey
                0x000000000000512e       0x24 .build/obj_sofle_rev1_default/common/report.o
                0x000000000000512e                has_anykey
 .text.is_key_pressed
                0x0000000000005152       0x22 .build/obj_sofle_rev1_default/common/report.o
                0x0000000000005152                is_key_pressed
 .text.add_key_byte
                0x0000000000005174       0x34 .build/obj_sofle_rev1_default/common/report.o
                0x0000000000005174                add_key_byte
 .text.del_key_byte
                0x00000000000051a8       0x1e .build/obj_sofle_rev1_default/common/report.o
                0x00000000000051a8                del_key_byte
 .text.add_key_to_report
                0x00000000000051c6        0x4 .build/obj_sofle_rev1_default/common/report.o
                0x00000000000051c6                add_key_to_report
 .text.del_key_from_report
                0x00000000000051ca        0x4 .build/obj_sofle_rev1_default/common/report.o
                0x00000000000051ca                del_key_from_report
 .text.clear_keys_from_report
                0x00000000000051ce       0x10 .build/obj_sofle_rev1_default/common/report.o
                0x00000000000051ce                clear_keys_from_report
 .text.sync_timer_init
                0x00000000000051de       0x12 .build/obj_sofle_rev1_default/common/sync_timer.o
                0x00000000000051de                sync_timer_init
 .text.sync_timer_update
                0x00000000000051f0       0x52 .build/obj_sofle_rev1_default/common/sync_timer.o
                0x00000000000051f0                sync_timer_update
 .text.sync_timer_read32
                0x0000000000005242       0x62 .build/obj_sofle_rev1_default/common/sync_timer.o
                0x0000000000005242                sync_timer_read32
 .text.platform_setup
                0x00000000000052a4        0x2 .build/obj_sofle_rev1_default/common/avr/platform.o
                0x00000000000052a4                platform_setup
 .text.matrix_power_up
                0x00000000000052a6        0x2 .build/obj_sofle_rev1_default/common/avr/suspend.o
                0x00000000000052a6                matrix_power_up
 .text.suspend_power_down_user
                0x00000000000052a8        0x2 .build/obj_sofle_rev1_default/common/avr/suspend.o
                0x00000000000052a8                suspend_power_down_user
 .text.suspend_power_down_kb
                0x00000000000052aa        0x4 .build/obj_sofle_rev1_default/common/avr/suspend.o
                0x00000000000052aa                suspend_power_down_kb
 .text.suspend_power_down
                0x00000000000052ae       0x5c .build/obj_sofle_rev1_default/common/avr/suspend.o
                0x00000000000052ae                suspend_power_down
 .text.matrix_power_down
                0x000000000000530a        0x2 .build/obj_sofle_rev1_default/common/avr/suspend.o
                0x000000000000530a                matrix_power_down
 .text.suspend_wakeup_condition
                0x000000000000530c       0x28 .build/obj_sofle_rev1_default/common/avr/suspend.o
                0x000000000000530c                suspend_wakeup_condition
 .text.suspend_wakeup_init_user
                0x0000000000005334        0x2 .build/obj_sofle_rev1_default/common/avr/suspend.o
                0x0000000000005334                suspend_wakeup_init_user
 .text.suspend_wakeup_init_kb
                0x0000000000005336        0x4 .build/obj_sofle_rev1_default/common/avr/suspend.o
                0x0000000000005336                suspend_wakeup_init_kb
 .text.suspend_wakeup_init
                0x000000000000533a       0x10 .build/obj_sofle_rev1_default/common/avr/suspend.o
                0x000000000000533a                suspend_wakeup_init
 .text.__vector_12
                0x000000000000534a       0x4e .build/obj_sofle_rev1_default/common/avr/suspend.o
                0x000000000000534a                __vector_12
 .text.timer_init
                0x0000000000005398       0x12 .build/obj_sofle_rev1_default/common/avr/timer.o
                0x0000000000005398                timer_init
 .text.timer_read
                0x00000000000053aa       0x18 .build/obj_sofle_rev1_default/common/avr/timer.o
                0x00000000000053aa                timer_read
 .text.timer_read32
                0x00000000000053c2       0x40 .build/obj_sofle_rev1_default/common/avr/timer.o
                0x00000000000053c2                timer_read32
 .text.timer_elapsed
                0x0000000000005402       0x1e .build/obj_sofle_rev1_default/common/avr/timer.o
                0x0000000000005402                timer_elapsed
 .text.timer_elapsed32
                0x0000000000005420       0x4e .build/obj_sofle_rev1_default/common/avr/timer.o
                0x0000000000005420                timer_elapsed32
 .text.__vector_21
                0x000000000000546e       0x48 .build/obj_sofle_rev1_default/common/avr/timer.o
                0x000000000000546e                __vector_21
 .text.bootloader_jump
                0x00000000000054b6       0x22 .build/obj_sofle_rev1_default/common/avr/bootloader.o
                0x00000000000054b6                bootloader_jump
 .text.print_set_sendchar
                0x00000000000054d8        0xa .build/obj_sofle_rev1_default/common/avr/printf.o
                0x00000000000054d8                print_set_sendchar
 .text.keyboard_leds
                0x00000000000054e2        0x6 .build/obj_sofle_rev1_default/lufa.o
 .text.send_extra
                0x00000000000054e8       0x56 .build/obj_sofle_rev1_default/lufa.o
 .text.send_consumer
                0x000000000000553e        0x8 .build/obj_sofle_rev1_default/lufa.o
 .text.send_system
                0x0000000000005546        0x8 .build/obj_sofle_rev1_default/lufa.o
 .text.send_keyboard
                0x000000000000554e       0x60 .build/obj_sofle_rev1_default/lufa.o
 .text.send_mouse
                0x00000000000055ae        0x2 .build/obj_sofle_rev1_default/lufa.o
 .text.EVENT_USB_Device_Connect
                0x00000000000055b0       0x24 .build/obj_sofle_rev1_default/lufa.o
                0x00000000000055b0                EVENT_USB_Device_Connect
 .text.EVENT_USB_Device_Disconnect
                0x00000000000055d4        0xe .build/obj_sofle_rev1_default/lufa.o
                0x00000000000055d4                EVENT_USB_Device_Disconnect
 .text.EVENT_USB_Device_Reset
                0x00000000000055e2        0x8 .build/obj_sofle_rev1_default/lufa.o
                0x00000000000055e2                EVENT_USB_Device_Reset
 .text.EVENT_USB_Device_Suspend
                0x00000000000055ea        0x8 .build/obj_sofle_rev1_default/lufa.o
                0x00000000000055ea                EVENT_USB_Device_Suspend
 .text.EVENT_USB_Device_WakeUp
                0x00000000000055f2        0x8 .build/obj_sofle_rev1_default/lufa.o
                0x00000000000055f2                EVENT_USB_Device_WakeUp
 .text.EVENT_USB_Device_StartOfFrame
                0x00000000000055fa       0x80 .build/obj_sofle_rev1_default/lufa.o
                0x00000000000055fa                EVENT_USB_Device_StartOfFrame
 .text.EVENT_USB_Device_ConfigurationChanged
                0x000000000000567a       0x1e .build/obj_sofle_rev1_default/lufa.o
                0x000000000000567a                EVENT_USB_Device_ConfigurationChanged
 .text.EVENT_USB_Device_ControlRequest
                0x0000000000005698      0x16c .build/obj_sofle_rev1_default/lufa.o
                0x0000000000005698                EVENT_USB_Device_ControlRequest
 .text.sendchar
                0x0000000000005804       0xc2 .build/obj_sofle_rev1_default/lufa.o
                0x0000000000005804                sendchar
 .text.protocol_setup
                0x00000000000058c6       0x32 .build/obj_sofle_rev1_default/lufa.o
                0x00000000000058c6                protocol_setup
 .text.protocol_init
                0x00000000000058f8       0x2c .build/obj_sofle_rev1_default/lufa.o
                0x00000000000058f8                protocol_init
 .text.protocol_task
                0x0000000000005924       0x3e .build/obj_sofle_rev1_default/lufa.o
                0x0000000000005924                protocol_task
 .text.CALLBACK_USB_GetDescriptor
                0x0000000000005962        0x4 .build/obj_sofle_rev1_default/lufa.o
                0x0000000000005962                CALLBACK_USB_GetDescriptor
 .text.get_usb_descriptor
                0x0000000000005966       0xb2 .build/obj_sofle_rev1_default/usb_descriptor.o
                0x0000000000005966                get_usb_descriptor
 .text.USB_Device_SendRemoteWakeup
                0x0000000000005a18       0x2c .build/obj_sofle_rev1_default/lib/lufa/LUFA/Drivers/USB/Core/AVR8/Device_AVR8.o
                0x0000000000005a18                USB_Device_SendRemoteWakeup
 .text.Endpoint_Write_Stream_LE
                0x0000000000005a44       0x9e .build/obj_sofle_rev1_default/lib/lufa/LUFA/Drivers/USB/Core/AVR8/EndpointStream_AVR8.o
                0x0000000000005a44                Endpoint_Write_Stream_LE
 .text.Endpoint_Write_Control_Stream_LE
                0x0000000000005ae2       0xb4 .build/obj_sofle_rev1_default/lib/lufa/LUFA/Drivers/USB/Core/AVR8/EndpointStream_AVR8.o
                0x0000000000005ae2                Endpoint_Write_Control_Stream_LE
 .text.Endpoint_Write_Control_PStream_LE
                0x0000000000005b96       0xb6 .build/obj_sofle_rev1_default/lib/lufa/LUFA/Drivers/USB/Core/AVR8/EndpointStream_AVR8.o
                0x0000000000005b96                Endpoint_Write_Control_PStream_LE
 .text.Endpoint_ConfigureEndpoint_Prv
                0x0000000000005c4c       0x68 .build/obj_sofle_rev1_default/lib/lufa/LUFA/Drivers/USB/Core/AVR8/Endpoint_AVR8.o
                0x0000000000005c4c                Endpoint_ConfigureEndpoint_Prv
 .text.Endpoint_ClearStatusStage
                0x0000000000005cb4       0x3e .build/obj_sofle_rev1_default/lib/lufa/LUFA/Drivers/USB/Core/AVR8/Endpoint_AVR8.o
                0x0000000000005cb4                Endpoint_ClearStatusStage
 .text.Endpoint_WaitUntilReady
                0x0000000000005cf2       0x62 .build/obj_sofle_rev1_default/lib/lufa/LUFA/Drivers/USB/Core/AVR8/Endpoint_AVR8.o
                0x0000000000005cf2                Endpoint_WaitUntilReady
 .text.USB_Disable
                0x0000000000005d54       0x34 .build/obj_sofle_rev1_default/lib/lufa/LUFA/Drivers/USB/Core/AVR8/USBController_AVR8.o
                0x0000000000005d54                USB_Disable
 .text.USB_ResetInterface
                0x0000000000005d88       0x86 .build/obj_sofle_rev1_default/lib/lufa/LUFA/Drivers/USB/Core/AVR8/USBController_AVR8.o
                0x0000000000005d88                USB_ResetInterface
 .text.USB_Init
                0x0000000000005e0e       0x22 .build/obj_sofle_rev1_default/lib/lufa/LUFA/Drivers/USB/Core/AVR8/USBController_AVR8.o
                0x0000000000005e0e                USB_Init
 .text.USB_INT_DisableAllInterrupts
                0x0000000000005e30       0x10 .build/obj_sofle_rev1_default/lib/lufa/LUFA/Drivers/USB/Core/AVR8/USBInterrupt_AVR8.o
                0x0000000000005e30                USB_INT_DisableAllInterrupts
 .text.USB_INT_ClearAllInterrupts
                0x0000000000005e40        0xa .build/obj_sofle_rev1_default/lib/lufa/LUFA/Drivers/USB/Core/AVR8/USBInterrupt_AVR8.o
                0x0000000000005e40                USB_INT_ClearAllInterrupts
 .text.__vector_10
                0x0000000000005e4a      0x1a6 .build/obj_sofle_rev1_default/lib/lufa/LUFA/Drivers/USB/Core/AVR8/USBInterrupt_AVR8.o
                0x0000000000005e4a                __vector_10
 .text.__vector_11
                0x0000000000005ff0       0x92 .build/obj_sofle_rev1_default/lib/lufa/LUFA/Drivers/USB/Core/AVR8/USBInterrupt_AVR8.o
                0x0000000000005ff0                __vector_11
 .text.USB_Device_ProcessControlRequest
                0x0000000000006082      0x2a2 .build/obj_sofle_rev1_default/lib/lufa/LUFA/Drivers/USB/Core/DeviceStandardReq.o
                0x0000000000006082                USB_Device_ProcessControlRequest
 .text.USB_USBTask
                0x0000000000006324       0x34 .build/obj_sofle_rev1_default/lib/lufa/LUFA/Drivers/USB/Core/USBTask.o
                0x0000000000006324                USB_USBTask
 .text.usb_disconnect
                0x0000000000006358        0xa .build/obj_sofle_rev1_default/protocol/lufa/usb_util.o
                0x0000000000006358                usb_disconnect
 .text.usb_vbus_state
                0x0000000000006362       0x1a .build/obj_sofle_rev1_default/protocol/lufa/usb_util.o
                0x0000000000006362                usb_vbus_state
 .text.libgcc.div
                0x000000000000637c       0x18 /usr/lib/gcc/avr/11.2.0/avr5/libgcc.a(_udivmodqi4.o)
                0x000000000000637c                __udivmodqi4
 .text.libgcc.div
                0x0000000000006394       0x28 /usr/lib/gcc/avr/11.2.0/avr5/libgcc.a(_udivmodhi4.o)
                0x0000000000006394                __udivmodhi4
 .text.libgcc.div
                0x00000000000063bc       0x28 /usr/lib/gcc/avr/11.2.0/avr5/libgcc.a(_divmodhi4.o)
                0x00000000000063bc                __divmodhi4
                0x00000000000063bc                _div
 .text.libgcc   0x00000000000063e4        0xc /usr/lib/gcc/avr/11.2.0/avr5/libgcc.a(_tablejump2.o)
                0x00000000000063e4                __tablejump2__
 .text.avr-libc
                0x00000000000063f0       0x12 /usr/lib/gcc/avr/11.2.0/../../../../avr/lib/avr5/libc.a(memcpy_P.o)
                0x00000000000063f0                memcpy_P
 .text.avr-libc
                0x0000000000006402       0x1a /usr/lib/gcc/avr/11.2.0/../../../../avr/lib/avr5/libc.a(memcmp.o)
                0x0000000000006402                memcmp
 .text.avr-libc
                0x000000000000641c       0x12 /usr/lib/gcc/avr/11.2.0/../../../../avr/lib/avr5/libc.a(memcpy.o)
                0x000000000000641c                memcpy
 .text.avr-libc
                0x000000000000642e       0x10 /usr/lib/gcc/avr/11.2.0/../../../../avr/lib/avr5/libatmega32u4.a(eerd_byte.o)
                0x000000000000642e                eeprom_read_byte
 .text.avr-libc
                0x000000000000643e        0xc /usr/lib/gcc/avr/11.2.0/../../../../avr/lib/avr5/libatmega32u4.a(eerd_word.o)
                0x000000000000643e                eeprom_read_word
 .text.avr-libc
                0x000000000000644a       0x24 /usr/lib/gcc/avr/11.2.0/../../../../avr/lib/avr5/libatmega32u4.a(eeupd_byte.o)
                0x000000000000644a                eeprom_update_byte
                0x000000000000644c                eeprom_update_r18
 .text.avr-libc
                0x000000000000646e       0x18 /usr/lib/gcc/avr/11.2.0/../../../../avr/lib/avr5/libatmega32u4.a(eeupd_dword.o)
                0x000000000000646e                eeprom_update_dword
                0x000000000000646e                eeprom_update_float
 .text.avr-libc
                0x0000000000006486        0xc /usr/lib/gcc/avr/11.2.0/../../../../avr/lib/avr5/libatmega32u4.a(eeupd_word.o)
                0x0000000000006486                eeprom_update_word
 .text.avr-libc
                0x0000000000006492       0x20 /usr/lib/gcc/avr/11.2.0/../../../../avr/lib/avr5/libatmega32u4.a(eerd_block.o)
                0x0000000000006492                eeprom_read_block
                0x0000000000006496                eeprom_read_blraw
                0x00000000000064b2                . = ALIGN (0x2)
 *(.fini9)
 .fini9         0x00000000000064b2        0x0 /usr/lib/gcc/avr/11.2.0/avr5/libgcc.a(_exit.o)
                0x00000000000064b2                exit
                0x00000000000064b2                _exit
 *(.fini9)
 *(.fini8)
 *(.fini8)
 *(.fini7)
 *(.fini7)
 *(.fini6)
 *(.fini6)
 *(.fini5)
 *(.fini5)
 *(.fini4)
 *(.fini4)
 *(.fini3)
 *(.fini3)
 *(.fini2)
 *(.fini2)
 *(.fini1)
 *(.fini1)
 *(.fini0)
 .fini0         0x00000000000064b2        0x4 /usr/lib/gcc/avr/11.2.0/avr5/libgcc.a(_exit.o)
 *(.fini0)
 *(.hightext)
 *(.hightext*)
 *(.progmemx.*)
                0x00000000000064b6                . = ALIGN (0x2)
 *(.jumptables)
 *(.jumptables*)
 .jumptables.gcc.process_record_user
                0x00000000000064b6       0x12 .build/obj_sofle_rev1_default/keyboards/sofle/keymaps/default/keymap.o
 .jumptables.gcc.process_action
                0x00000000000064c8       0x26 .build/obj_sofle_rev1_default/quantum/action.o
 .jumptables.gcc.process_magic
                0x00000000000064ee       0x36 .build/obj_sofle_rev1_default/quantum/process_keycode/process_magic.o
 .jumptables.gcc.USB_Device_ProcessControlRequest
                0x0000000000006524       0x14 .build/obj_sofle_rev1_default/lib/lufa/LUFA/Drivers/USB/Core/DeviceStandardReq.o
                0x0000000000006538                _etext = .

.data           0x0000000000800100      0x100 load address 0x0000000000006538
                0x0000000000800100                PROVIDE (__data_start = .)
 *(.data)
 *(.data*)
 .data.keyboard_report
                0x0000000000800100        0x2 .build/obj_sofle_rev1_default/quantum/action_util.o
                0x0000000000800100                keyboard_report
 .data.isLeftHand
                0x0000000000800102        0x1 .build/obj_sofle_rev1_default/quantum/split_common/split_util.o
                0x0000000000800102                isLeftHand
 .data.split_transaction_table
                0x0000000000800103       0x32 .build/obj_sofle_rev1_default/quantum/split_common/transactions.o
                0x0000000000800103                split_transaction_table
 .data.encoders_pad_b
                0x0000000000800135        0x1 .build/obj_sofle_rev1_default/quantum/encoder.o
 .data.encoders_pad_a
                0x0000000000800136        0x1 .build/obj_sofle_rev1_default/quantum/encoder.o
 .data.display_start.21
                0x0000000000800137        0x7 .build/obj_sofle_rev1_default/ssd1306_sh1106.o
 .data.oled_scroll_end
                0x000000000080013e        0x1 .build/obj_sofle_rev1_default/ssd1306_sh1106.o
                0x000000000080013e                oled_scroll_end
 .data.lufa_driver
                0x000000000080013f        0xa .build/obj_sofle_rev1_default/lufa.o
                0x000000000080013f                lufa_driver
 .data.keyboard_protocol
                0x0000000000800149        0x1 .build/obj_sofle_rev1_default/lufa.o
                0x0000000000800149                keyboard_protocol
 *(.gnu.linkonce.d*)
 *(.rodata)
 *(.rodata*)
 .rodata.CSWTCH.25
                0x000000000080014a       0x2e .build/obj_sofle_rev1_default/quantum/action.o
 .rodata.CSWTCH.2
                0x0000000000800178       0x2e .build/obj_sofle_rev1_default/quantum/keymap_common.o
 .rodata.col_pins
                0x00000000008001a6        0x6 .build/obj_sofle_rev1_default/quantum/matrix.o
 .rodata.row_pins
                0x00000000008001ac        0xa .build/obj_sofle_rev1_default/quantum/matrix.o
 .rodata.split_shmem
                0x00000000008001b6        0x2 .build/obj_sofle_rev1_default/quantum/split_common/transport.o
                0x00000000008001b6                split_shmem
 .rodata.transactions_master.str1.1
                0x00000000008001b8       0x20 .build/obj_sofle_rev1_default/quantum/split_common/transactions.o
 .rodata.encoder_LUT
                0x00000000008001d8       0x10 .build/obj_sofle_rev1_default/quantum/encoder.o
 .rodata.source_map.16
                0x00000000008001e8        0x4 .build/obj_sofle_rev1_default/ssd1306_sh1106.o
 .rodata.target_map.17
                0x00000000008001ec        0x4 .build/obj_sofle_rev1_default/ssd1306_sh1106.o
 .rodata.CSWTCH.3
                0x00000000008001f0        0x3 .build/obj_sofle_rev1_default/usb_descriptor.o
 .rodata.CSWTCH.2
                0x00000000008001f3        0x6 .build/obj_sofle_rev1_default/usb_descriptor.o
 .rodata.CSWTCH.1
                0x00000000008001f9        0x6 .build/obj_sofle_rev1_default/usb_descriptor.o
 *(.gnu.linkonce.r*)
                0x0000000000800200                . = ALIGN (0x2)
 *fill*         0x00000000008001ff        0x1 
                0x0000000000800200                _edata = .
                0x0000000000800200                PROVIDE (__data_end = .)

.bss            0x0000000000800200      0x34c
                0x0000000000800200                PROVIDE (__bss_start = .)
 *(.bss)
 .bss           0x0000000000800200        0x2 .build/obj_sofle_rev1_default/common/avr/xprintf.o
                0x0000000000800200                xfunc_out
 *(.bss*)
 .bss.swap_state.0
                0x0000000000800202        0xa .build/obj_sofle_rev1_default/quantum/action.o
 .bss.disable_action_cache
                0x000000000080020c        0x1 .build/obj_sofle_rev1_default/quantum/action.o
                0x000000000080020c                disable_action_cache
 .bss.swap_held
                0x000000000080020d        0x1 .build/obj_sofle_rev1_default/quantum/action.o
                0x000000000080020d                swap_held
 .bss.swap_hands
                0x000000000080020e        0x1 .build/obj_sofle_rev1_default/quantum/action.o
                0x000000000080020e                swap_hands
 .bss.source_layers_cache
                0x000000000080020f       0x28 .build/obj_sofle_rev1_default/quantum/action_layer.o
                0x000000000080020f                source_layers_cache
 .bss.layer_state
                0x0000000000800237        0x4 .build/obj_sofle_rev1_default/quantum/action_layer.o
                0x0000000000800237                layer_state
 .bss.default_layer_state
                0x000000000080023b        0x4 .build/obj_sofle_rev1_default/quantum/action_layer.o
                0x000000000080023b                default_layer_state
 .bss.waiting_buffer_tail
                0x000000000080023f        0x1 .build/obj_sofle_rev1_default/quantum/action_tapping.o
 .bss.waiting_buffer_head
                0x0000000000800240        0x1 .build/obj_sofle_rev1_default/quantum/action_tapping.o
 .bss.waiting_buffer
                0x0000000000800241       0x30 .build/obj_sofle_rev1_default/quantum/action_tapping.o
 .bss.tapping_key
                0x0000000000800271        0x6 .build/obj_sofle_rev1_default/quantum/action_tapping.o
 .bss.swap_hands_oneshot
                0x0000000000800277        0x1 .build/obj_sofle_rev1_default/quantum/action_util.o
                0x0000000000800277                swap_hands_oneshot
 .bss.oneshot_layer_data
                0x0000000000800278        0x1 .build/obj_sofle_rev1_default/quantum/action_util.o
 .bss.oneshot_mods
                0x0000000000800279        0x1 .build/obj_sofle_rev1_default/quantum/action_util.o
 .bss.__compound_literal.0
                0x000000000080027a        0x8 .build/obj_sofle_rev1_default/quantum/action_util.o
 .bss.macro_mods
                0x0000000000800282        0x1 .build/obj_sofle_rev1_default/quantum/action_util.o
 .bss.weak_mods
                0x0000000000800283        0x1 .build/obj_sofle_rev1_default/quantum/action_util.o
 .bss.real_mods
                0x0000000000800284        0x1 .build/obj_sofle_rev1_default/quantum/action_util.o
 .bss.led_status.3
                0x0000000000800285        0x1 .build/obj_sofle_rev1_default/quantum/keyboard.o
 .bss.matrix_prev.4
                0x0000000000800286        0xa .build/obj_sofle_rev1_default/quantum/keyboard.o
 .bss.last_encoder_modification_time
                0x0000000000800290        0x4 .build/obj_sofle_rev1_default/quantum/keyboard.o
 .bss.last_matrix_modification_time
                0x0000000000800294        0x4 .build/obj_sofle_rev1_default/quantum/keyboard.o
 .bss.last_input_modification_time
                0x0000000000800298        0x4 .build/obj_sofle_rev1_default/quantum/keyboard.o
 .bss.debug_config
                0x000000000080029c        0x1 .build/obj_sofle_rev1_default/quantum/logging/debug.o
                0x000000000080029c                debug_config
 .bss.debouncing_time
                0x000000000080029d        0x2 .build/obj_sofle_rev1_default/quantum/debounce/sym_defer_g.o
 .bss.debouncing
                0x000000000080029f        0x1 .build/obj_sofle_rev1_default/quantum/debounce/sym_defer_g.o
 .bss.connection_check_timer.2
                0x00000000008002a0        0x2 .build/obj_sofle_rev1_default/quantum/split_common/split_util.o
 .bss.usbstate.3
                0x00000000008002a2        0x1 .build/obj_sofle_rev1_default/quantum/split_common/split_util.o
 .bss.connection_errors
                0x00000000008002a3        0x1 .build/obj_sofle_rev1_default/quantum/split_common/split_util.o
 .bss.shared_memory
                0x00000000008002a4        0xc .build/obj_sofle_rev1_default/quantum/split_common/transport.o
 .bss.last_sync_timer.0
                0x00000000008002b0        0x4 .build/obj_sofle_rev1_default/quantum/split_common/transactions.o
 .bss.last_matrix.2
                0x00000000008002b4        0x5 .build/obj_sofle_rev1_default/quantum/split_common/transactions.o
 .bss.last_update.3
                0x00000000008002b9        0x4 .build/obj_sofle_rev1_default/quantum/split_common/transactions.o
 .bss.last_update.4
                0x00000000008002bd        0x4 .build/obj_sofle_rev1_default/quantum/split_common/transactions.o
 .bss.last_update.5
                0x00000000008002c1        0x4 .build/obj_sofle_rev1_default/quantum/split_common/transactions.o
 .bss.thatHand  0x00000000008002c5        0x1 .build/obj_sofle_rev1_default/quantum/encoder.o
 .bss.thisHand  0x00000000008002c6        0x1 .build/obj_sofle_rev1_default/quantum/encoder.o
 .bss.encoder_value
                0x00000000008002c7        0x2 .build/obj_sofle_rev1_default/quantum/encoder.o
 .bss.encoder_pulses
                0x00000000008002c9        0x1 .build/obj_sofle_rev1_default/quantum/encoder.o
 .bss.encoder_state
                0x00000000008002ca        0x1 .build/obj_sofle_rev1_default/quantum/encoder.o
 .bss.oled_temp_buffer.14
                0x00000000008002cb        0x6 .build/obj_sofle_rev1_default/ssd1306_sh1106.o
 .bss.temp_buffer.18
                0x00000000008002d1       0x20 .build/obj_sofle_rev1_default/ssd1306_sh1106.o
 .bss.oled_scroll_start
                0x00000000008002f1        0x1 .build/obj_sofle_rev1_default/ssd1306_sh1106.o
                0x00000000008002f1                oled_scroll_start
 .bss.oled_scroll_speed
                0x00000000008002f2        0x1 .build/obj_sofle_rev1_default/ssd1306_sh1106.o
                0x00000000008002f2                oled_scroll_speed
 .bss.oled_rotation_width
                0x00000000008002f3        0x1 .build/obj_sofle_rev1_default/ssd1306_sh1106.o
                0x00000000008002f3                oled_rotation_width
 .bss.oled_rotation
                0x00000000008002f4        0x1 .build/obj_sofle_rev1_default/ssd1306_sh1106.o
                0x00000000008002f4                oled_rotation
 .bss.oled_scrolling
                0x00000000008002f5        0x1 .build/obj_sofle_rev1_default/ssd1306_sh1106.o
                0x00000000008002f5                oled_scrolling
 .bss.oled_active
                0x00000000008002f6        0x1 .build/obj_sofle_rev1_default/ssd1306_sh1106.o
                0x00000000008002f6                oled_active
 .bss.oled_initialized
                0x00000000008002f7        0x1 .build/obj_sofle_rev1_default/ssd1306_sh1106.o
                0x00000000008002f7                oled_initialized
 .bss.oled_dirty
                0x00000000008002f8        0x2 .build/obj_sofle_rev1_default/ssd1306_sh1106.o
                0x00000000008002f8                oled_dirty
 .bss.sc_timer  0x00000000008002fa        0x2 .build/obj_sofle_rev1_default/quantum/process_keycode/process_space_cadet.o
 .bss.sc_last   0x00000000008002fc        0x1 .build/obj_sofle_rev1_default/quantum/process_keycode/process_space_cadet.o
 .bss.grave_esc_was_shifted
                0x00000000008002fd        0x1 .build/obj_sofle_rev1_default/quantum/process_keycode/process_grave_esc.o
 .bss.split_led_state
                0x00000000008002fe        0x1 .build/obj_sofle_rev1_default/common/host.o
                0x00000000008002fe                split_led_state
 .bss.last_consumer_report
                0x00000000008002ff        0x2 .build/obj_sofle_rev1_default/common/host.o
 .bss.last_system_report
                0x0000000000800301        0x2 .build/obj_sofle_rev1_default/common/host.o
 .bss.driver    0x0000000000800303        0x2 .build/obj_sofle_rev1_default/common/host.o
 .bss.wdt_timeout
                0x0000000000800305        0x1 .build/obj_sofle_rev1_default/common/avr/suspend.o
 .bss.timed_out.2
                0x0000000000800306        0x1 .build/obj_sofle_rev1_default/lufa.o
 .bss.count.3   0x0000000000800307        0x1 .build/obj_sofle_rev1_default/lufa.o
 .bss.r.9       0x0000000000800308        0x3 .build/obj_sofle_rev1_default/lufa.o
 .bss.console_flush
                0x000000000080030b        0x1 .build/obj_sofle_rev1_default/lufa.o
 .bss.keyboard_report_sent
                0x000000000080030c        0x8 .build/obj_sofle_rev1_default/lufa.o
 .bss.keyboard_led_state
                0x0000000000800314        0x1 .build/obj_sofle_rev1_default/lufa.o
 .bss.keyboard_idle
                0x0000000000800315        0x1 .build/obj_sofle_rev1_default/lufa.o
                0x0000000000800315                keyboard_idle
 *(COMMON)
 COMMON         0x0000000000800316        0x2 .build/obj_sofle_rev1_default/quantum/bootmagic/magic.o
                0x0000000000800316                keymap_config
 COMMON         0x0000000000800318       0x14 .build/obj_sofle_rev1_default/quantum/matrix_common.o
                0x0000000000800318                raw_matrix
                0x0000000000800322                matrix
 COMMON         0x000000000080032c        0x2 .build/obj_sofle_rev1_default/quantum/matrix.o
                0x000000000080032c                thatHand
                0x000000000080032d                thisHand
 COMMON         0x000000000080032e        0x1 .build/obj_sofle_rev1_default/quantum/split_common/transactions.o
                0x000000000080032e                dummy
 COMMON         0x000000000080032f      0x208 .build/obj_sofle_rev1_default/ssd1306_sh1106.o
                0x000000000080032f                oled_buffer
                0x000000000080052f                oled_update_timeout
                0x0000000000800531                oled_timeout
                0x0000000000800535                oled_cursor
 COMMON         0x0000000000800537        0x4 .build/obj_sofle_rev1_default/common/sync_timer.o
                0x0000000000800537                sync_timer_ms
 COMMON         0x000000000080053b        0x4 .build/obj_sofle_rev1_default/common/avr/timer.o
                0x000000000080053b                timer_count
 COMMON         0x000000000080053f        0x3 .build/obj_sofle_rev1_default/lib/lufa/LUFA/Drivers/USB/Core/DeviceStandardReq.o
                0x000000000080053f                USB_Device_ConfigurationNumber
                0x0000000000800540                USB_Device_CurrentlySelfPowered
                0x0000000000800541                USB_Device_RemoteWakeupEnabled
 COMMON         0x0000000000800542        0xa .build/obj_sofle_rev1_default/lib/lufa/LUFA/Drivers/USB/Core/USBTask.o
                0x0000000000800542                USB_IsInitialized
                0x0000000000800543                USB_DeviceState
                0x0000000000800544                USB_ControlRequest
                0x000000000080054c                PROVIDE (__bss_end = .)
                0x0000000000006538                __data_load_start = LOADADDR (.data)
                0x0000000000006638                __data_load_end = (__data_load_start + SIZEOF (.data))

.noinit         0x000000000080054c        0x4
                [!provide]                        PROVIDE (__noinit_start = .)
 *(.noinit .noinit.* .gnu.linkonce.n.*)
 .noinit        0x000000000080054c        0x4 .build/obj_sofle_rev1_default/common/avr/bootloader.o
                0x000000000080054c                reset_key
                [!provide]                        PROVIDE (__noinit_end = .)
                0x0000000000800550                _end = .
                [!provide]                        PROVIDE (__heap_start = .)

.eeprom         0x0000000000810000        0x0
 *(.eeprom*)
                0x0000000000810000                __eeprom_end = .

.fuse
 *(.fuse)
 *(.lfuse)
 *(.hfuse)
 *(.efuse)

.lock
 *(.lock*)

.signature
 *(.signature*)

.stab           0x0000000000000000      0x8b8
 *(.stab)
 .stab          0x0000000000000000      0x8b8 .build/obj_sofle_rev1_default/common/avr/xprintf.o

.stabstr        0x0000000000000000       0x6d
 *(.stabstr)
 .stabstr       0x0000000000000000       0x6d .build/obj_sofle_rev1_default/common/avr/xprintf.o

.stab.excl
 *(.stab.excl)

.stab.exclstr
 *(.stab.exclstr)

.stab.index
 *(.stab.index)

.stab.indexstr
 *(.stab.indexstr)

.comment        0x0000000000000000       0x12
 *(.comment)
 .comment       0x0000000000000000       0x12 .build/obj_sofle_rev1_default/keyboards/sofle/sofle.o
                                         0x13 (size before relaxing)
 .comment       0x0000000000000012       0x13 .build/obj_sofle_rev1_default/keyboards/sofle/keymaps/default/keymap.o
 .comment       0x0000000000000012       0x13 .build/obj_sofle_rev1_default/quantum/quantum.o
 .comment       0x0000000000000012       0x13 .build/obj_sofle_rev1_default/quantum/bitwise.o
 .comment       0x0000000000000012       0x13 .build/obj_sofle_rev1_default/quantum/led.o
 .comment       0x0000000000000012       0x13 .build/obj_sofle_rev1_default/quantum/action.o
 .comment       0x0000000000000012       0x13 .build/obj_sofle_rev1_default/quantum/action_layer.o
 .comment       0x0000000000000012       0x13 .build/obj_sofle_rev1_default/quantum/action_tapping.o
 .comment       0x0000000000000012       0x13 .build/obj_sofle_rev1_default/quantum/action_util.o
 .comment       0x0000000000000012       0x13 .build/obj_sofle_rev1_default/quantum/eeconfig.o
 .comment       0x0000000000000012       0x13 .build/obj_sofle_rev1_default/quantum/keyboard.o
 .comment       0x0000000000000012       0x13 .build/obj_sofle_rev1_default/quantum/keymap_common.o
 .comment       0x0000000000000012       0x13 .build/obj_sofle_rev1_default/quantum/keycode_config.o
 .comment       0x0000000000000012       0x13 .build/obj_sofle_rev1_default/quantum/logging/debug.o
 .comment       0x0000000000000012       0x13 .build/obj_sofle_rev1_default/quantum/bootmagic/magic.o
 .comment       0x0000000000000012       0x13 .build/obj_sofle_rev1_default/quantum/matrix_common.o
 .comment       0x0000000000000012       0x13 .build/obj_sofle_rev1_default/quantum/matrix.o
 .comment       0x0000000000000012       0x13 .build/obj_sofle_rev1_default/quantum/debounce/sym_defer_g.o
 .comment       0x0000000000000012       0x13 .build/obj_sofle_rev1_default/quantum/split_common/split_util.o
 .comment       0x0000000000000012       0x13 .build/obj_sofle_rev1_default/quantum/split_common/transport.o
 .comment       0x0000000000000012       0x13 .build/obj_sofle_rev1_default/quantum/split_common/transactions.o
 .comment       0x0000000000000012       0x13 .build/obj_sofle_rev1_default/quantum/main.o
 .comment       0x0000000000000012       0x13 .build/obj_sofle_rev1_default/quantum/encoder.o
 .comment       0x0000000000000012       0x13 .build/obj_sofle_rev1_default/crc.o
 .comment       0x0000000000000012       0x13 .build/obj_sofle_rev1_default/ssd1306_sh1106.o
 .comment       0x0000000000000012       0x13 .build/obj_sofle_rev1_default/quantum/process_keycode/process_space_cadet.o
 .comment       0x0000000000000012       0x13 .build/obj_sofle_rev1_default/quantum/process_keycode/process_magic.o
 .comment       0x0000000000000012       0x13 .build/obj_sofle_rev1_default/quantum/process_keycode/process_grave_esc.o
 .comment       0x0000000000000012       0x13 .build/obj_sofle_rev1_default/i2c_master.a(i2c_master.o)
 .comment       0x0000000000000012       0x13 .build/obj_sofle_rev1_default/serial.a(serial.o)
 .comment       0x0000000000000012       0x13 .build/obj_sofle_rev1_default/common/host.o
 .comment       0x0000000000000012       0x13 .build/obj_sofle_rev1_default/common/report.o
 .comment       0x0000000000000012       0x13 .build/obj_sofle_rev1_default/common/sync_timer.o
 .comment       0x0000000000000012       0x13 .build/obj_sofle_rev1_default/common/avr/platform.o
 .comment       0x0000000000000012       0x13 .build/obj_sofle_rev1_default/common/avr/suspend.o
 .comment       0x0000000000000012       0x13 .build/obj_sofle_rev1_default/common/avr/timer.o
 .comment       0x0000000000000012       0x13 .build/obj_sofle_rev1_default/common/avr/bootloader.o
 .comment       0x0000000000000012       0x13 .build/obj_sofle_rev1_default/common/avr/printf.o
 .comment       0x0000000000000012       0x13 .build/obj_sofle_rev1_default/lufa.o
 .comment       0x0000000000000012       0x13 .build/obj_sofle_rev1_default/usb_descriptor.o
 .comment       0x0000000000000012       0x13 .build/obj_sofle_rev1_default/lib/lufa/LUFA/Drivers/USB/Core/AVR8/Device_AVR8.o
 .comment       0x0000000000000012       0x13 .build/obj_sofle_rev1_default/lib/lufa/LUFA/Drivers/USB/Core/AVR8/EndpointStream_AVR8.o
 .comment       0x0000000000000012       0x13 .build/obj_sofle_rev1_default/lib/lufa/LUFA/Drivers/USB/Core/AVR8/Endpoint_AVR8.o
 .comment       0x0000000000000012       0x13 .build/obj_sofle_rev1_default/lib/lufa/LUFA/Drivers/USB/Core/AVR8/USBController_AVR8.o
 .comment       0x0000000000000012       0x13 .build/obj_sofle_rev1_default/lib/lufa/LUFA/Drivers/USB/Core/AVR8/USBInterrupt_AVR8.o
 .comment       0x0000000000000012       0x13 .build/obj_sofle_rev1_default/lib/lufa/LUFA/Drivers/USB/Core/DeviceStandardReq.o
 .comment       0x0000000000000012       0x13 .build/obj_sofle_rev1_default/lib/lufa/LUFA/Drivers/USB/Core/USBTask.o
 .comment       0x0000000000000012       0x13 .build/obj_sofle_rev1_default/protocol/lufa/usb_util.o

.note.gnu.avr.deviceinfo
                0x0000000000000000       0x40
 .note.gnu.avr.deviceinfo
                0x0000000000000000       0x40 /usr/lib/gcc/avr/11.2.0/../../../../avr/lib/avr5/crtatmega32u4.o

.note.gnu.build-id
 *(.note.gnu.build-id)

.debug
 *(.debug)

.line
 *(.line)

.debug_srcinfo
 *(.debug_srcinfo)

.debug_sfnames
 *(.debug_sfnames)

.debug_aranges  0x0000000000000000     0x11b8
 *(.debug_aranges)
 .debug_aranges
                0x0000000000000000       0x18 .build/obj_sofle_rev1_default/keyboards/sofle/sofle.o
 .debug_aranges
                0x0000000000000018       0x30 .build/obj_sofle_rev1_default/keyboards/sofle/keymaps/default/keymap.o
 .debug_aranges
                0x0000000000000048       0xd0 .build/obj_sofle_rev1_default/quantum/quantum.o
 .debug_aranges
                0x0000000000000118       0x60 .build/obj_sofle_rev1_default/quantum/bitwise.o
 .debug_aranges
                0x0000000000000178       0x48 .build/obj_sofle_rev1_default/quantum/led.o
 .debug_aranges
                0x00000000000001c0       0xe8 .build/obj_sofle_rev1_default/quantum/action.o
 .debug_aranges
                0x00000000000002a8       0xe0 .build/obj_sofle_rev1_default/quantum/action_layer.o
 .debug_aranges
                0x0000000000000388       0x48 .build/obj_sofle_rev1_default/quantum/action_tapping.o
 .debug_aranges
                0x00000000000003d0      0x198 .build/obj_sofle_rev1_default/quantum/action_util.o
 .debug_aranges
                0x0000000000000568       0xd8 .build/obj_sofle_rev1_default/quantum/eeconfig.o
 .debug_aranges
                0x0000000000000640       0xb0 .build/obj_sofle_rev1_default/quantum/keyboard.o
 .debug_aranges
                0x00000000000006f0       0x48 .build/obj_sofle_rev1_default/quantum/keymap_common.o
 .debug_aranges
                0x0000000000000738       0x28 .build/obj_sofle_rev1_default/quantum/keycode_config.o
 .debug_aranges
                0x0000000000000760       0x18 .build/obj_sofle_rev1_default/quantum/logging/debug.o
 .debug_aranges
                0x0000000000000778       0x28 .build/obj_sofle_rev1_default/quantum/bootmagic/magic.o
 .debug_aranges
                0x00000000000007a0       0xa0 .build/obj_sofle_rev1_default/quantum/matrix_common.o
 .debug_aranges
                0x0000000000000840       0x60 .build/obj_sofle_rev1_default/quantum/matrix.o
 .debug_aranges
                0x00000000000008a0       0x38 .build/obj_sofle_rev1_default/quantum/debounce/sym_defer_g.o
 .debug_aranges
                0x00000000000008d8       0x48 .build/obj_sofle_rev1_default/quantum/split_common/split_util.o
 .debug_aranges
                0x0000000000000920       0x40 .build/obj_sofle_rev1_default/quantum/split_common/transport.o
 .debug_aranges
                0x0000000000000960       0x50 .build/obj_sofle_rev1_default/quantum/split_common/transactions.o
 .debug_aranges
                0x00000000000009b0       0x20 .build/obj_sofle_rev1_default/quantum/main.o
 .debug_aranges
                0x00000000000009d0       0x48 .build/obj_sofle_rev1_default/quantum/encoder.o
 .debug_aranges
                0x0000000000000a18       0x28 .build/obj_sofle_rev1_default/crc.o
 .debug_aranges
                0x0000000000000a40      0x138 .build/obj_sofle_rev1_default/ssd1306_sh1106.o
 .debug_aranges
                0x0000000000000b78       0x28 .build/obj_sofle_rev1_default/quantum/process_keycode/process_space_cadet.o
 .debug_aranges
                0x0000000000000ba0       0x20 .build/obj_sofle_rev1_default/quantum/process_keycode/process_magic.o
 .debug_aranges
                0x0000000000000bc0       0x20 .build/obj_sofle_rev1_default/quantum/process_keycode/process_grave_esc.o
 .debug_aranges
                0x0000000000000be0       0x68 .build/obj_sofle_rev1_default/i2c_master.a(i2c_master.o)
 .debug_aranges
                0x0000000000000c48       0x70 .build/obj_sofle_rev1_default/serial.a(serial.o)
 .debug_aranges
                0x0000000000000cb8       0x80 .build/obj_sofle_rev1_default/common/host.o
 .debug_aranges
                0x0000000000000d38       0x58 .build/obj_sofle_rev1_default/common/report.o
 .debug_aranges
                0x0000000000000d90       0x48 .build/obj_sofle_rev1_default/common/sync_timer.o
 .debug_aranges
                0x0000000000000dd8       0x20 .build/obj_sofle_rev1_default/common/avr/platform.o
 .debug_aranges
                0x0000000000000df8       0x58 .build/obj_sofle_rev1_default/common/avr/suspend.o
 .debug_aranges
                0x0000000000000e50       0x50 .build/obj_sofle_rev1_default/common/avr/timer.o
 .debug_aranges
                0x0000000000000ea0       0x28 .build/obj_sofle_rev1_default/common/avr/bootloader.o
 .debug_aranges
                0x0000000000000ec8       0x20 .build/obj_sofle_rev1_default/common/avr/printf.o
 .debug_aranges
                0x0000000000000ee8       0xb0 .build/obj_sofle_rev1_default/lufa.o
 .debug_aranges
                0x0000000000000f98       0x20 .build/obj_sofle_rev1_default/usb_descriptor.o
 .debug_aranges
                0x0000000000000fb8       0x20 .build/obj_sofle_rev1_default/lib/lufa/LUFA/Drivers/USB/Core/AVR8/Device_AVR8.o
 .debug_aranges
                0x0000000000000fd8       0xc8 .build/obj_sofle_rev1_default/lib/lufa/LUFA/Drivers/USB/Core/AVR8/EndpointStream_AVR8.o
 .debug_aranges
                0x00000000000010a0       0x40 .build/obj_sofle_rev1_default/lib/lufa/LUFA/Drivers/USB/Core/AVR8/Endpoint_AVR8.o
 .debug_aranges
                0x00000000000010e0       0x30 .build/obj_sofle_rev1_default/lib/lufa/LUFA/Drivers/USB/Core/AVR8/USBController_AVR8.o
 .debug_aranges
                0x0000000000001110       0x38 .build/obj_sofle_rev1_default/lib/lufa/LUFA/Drivers/USB/Core/AVR8/USBInterrupt_AVR8.o
 .debug_aranges
                0x0000000000001148       0x20 .build/obj_sofle_rev1_default/lib/lufa/LUFA/Drivers/USB/Core/DeviceStandardReq.o
 .debug_aranges
                0x0000000000001168       0x20 .build/obj_sofle_rev1_default/lib/lufa/LUFA/Drivers/USB/Core/USBTask.o
 .debug_aranges
                0x0000000000001188       0x30 .build/obj_sofle_rev1_default/protocol/lufa/usb_util.o

.debug_pubnames
 *(.debug_pubnames)

.debug_info     0x0000000000000000    0x1f5ab
 *(.debug_info .gnu.linkonce.wi.*)
 .debug_info    0x0000000000000000      0x9f4 /usr/lib/gcc/avr/11.2.0/../../../../avr/lib/avr5/crtatmega32u4.o
 .debug_info    0x00000000000009f4      0x12b .build/obj_sofle_rev1_default/keyboards/sofle/sofle.o
 .debug_info    0x0000000000000b1f     0x196e .build/obj_sofle_rev1_default/keyboards/sofle/keymaps/default/keymap.o
 .debug_info    0x000000000000248d     0x1e13 .build/obj_sofle_rev1_default/quantum/quantum.o
 .debug_info    0x00000000000042a0      0x2e1 .build/obj_sofle_rev1_default/quantum/bitwise.o
 .debug_info    0x0000000000004581      0x26c .build/obj_sofle_rev1_default/quantum/led.o
 .debug_info    0x00000000000047ed     0x22e3 .build/obj_sofle_rev1_default/quantum/action.o
 .debug_info    0x0000000000006ad0      0xc32 .build/obj_sofle_rev1_default/quantum/action_layer.o
 .debug_info    0x0000000000007702      0xf18 .build/obj_sofle_rev1_default/quantum/action_tapping.o
 .debug_info    0x000000000000861a      0xe07 .build/obj_sofle_rev1_default/quantum/action_util.o
 .debug_info    0x0000000000009421      0x90b .build/obj_sofle_rev1_default/quantum/eeconfig.o
 .debug_info    0x0000000000009d2c      0x9f9 .build/obj_sofle_rev1_default/quantum/keyboard.o
 .debug_info    0x000000000000a725     0x1c1c .build/obj_sofle_rev1_default/quantum/keymap_common.o
 .debug_info    0x000000000000c341      0x64e .build/obj_sofle_rev1_default/quantum/keycode_config.o
 .debug_info    0x000000000000c98f      0x110 .build/obj_sofle_rev1_default/quantum/logging/debug.o
 .debug_info    0x000000000000ca9f      0x3a3 .build/obj_sofle_rev1_default/quantum/bootmagic/magic.o
 .debug_info    0x000000000000ce42      0x7bd .build/obj_sofle_rev1_default/quantum/matrix_common.o
 .debug_info    0x000000000000d5ff      0x98e .build/obj_sofle_rev1_default/quantum/matrix.o
 .debug_info    0x000000000000df8d      0x29f .build/obj_sofle_rev1_default/quantum/debounce/sym_defer_g.o
 .debug_info    0x000000000000e22c      0x511 .build/obj_sofle_rev1_default/quantum/split_common/split_util.o
 .debug_info    0x000000000000e73d      0x5db .build/obj_sofle_rev1_default/quantum/split_common/transport.o
 .debug_info    0x000000000000ed18     0x1014 .build/obj_sofle_rev1_default/quantum/split_common/transactions.o
 .debug_info    0x000000000000fd2c       0xe9 .build/obj_sofle_rev1_default/quantum/main.o
 .debug_info    0x000000000000fe15      0x520 .build/obj_sofle_rev1_default/quantum/encoder.o
 .debug_info    0x0000000000010335      0x15b .build/obj_sofle_rev1_default/crc.o
 .debug_info    0x0000000000010490     0x1bc7 .build/obj_sofle_rev1_default/ssd1306_sh1106.o
 .debug_info    0x0000000000012057     0x1325 .build/obj_sofle_rev1_default/quantum/process_keycode/process_space_cadet.o
 .debug_info    0x000000000001337c      0xeb9 .build/obj_sofle_rev1_default/quantum/process_keycode/process_magic.o
 .debug_info    0x0000000000014235     0x131a .build/obj_sofle_rev1_default/quantum/process_keycode/process_grave_esc.o
 .debug_info    0x000000000001554f      0x7b9 .build/obj_sofle_rev1_default/i2c_master.a(i2c_master.o)
 .debug_info    0x0000000000015d08     0x1033 .build/obj_sofle_rev1_default/serial.a(serial.o)
 .debug_info    0x0000000000016d3b      0x8d7 .build/obj_sofle_rev1_default/common/host.o
 .debug_info    0x0000000000017612      0x80c .build/obj_sofle_rev1_default/common/report.o
 .debug_info    0x0000000000017e1e      0x2a9 .build/obj_sofle_rev1_default/common/sync_timer.o
 .debug_info    0x00000000000180c7       0x79 .build/obj_sofle_rev1_default/common/avr/platform.o
 .debug_info    0x0000000000018140      0x3b7 .build/obj_sofle_rev1_default/common/avr/suspend.o
 .debug_info    0x00000000000184f7      0x45c .build/obj_sofle_rev1_default/common/avr/timer.o
 .debug_info    0x0000000000018953      0x1b1 .build/obj_sofle_rev1_default/common/avr/bootloader.o
 .debug_info    0x0000000000018b04       0xe7 .build/obj_sofle_rev1_default/common/avr/printf.o
 .debug_info    0x0000000000018beb     0x1ac1 .build/obj_sofle_rev1_default/lufa.o
 .debug_info    0x000000000001a6ac      0x879 .build/obj_sofle_rev1_default/usb_descriptor.o
 .debug_info    0x000000000001af25       0xf5 .build/obj_sofle_rev1_default/lib/lufa/LUFA/Drivers/USB/Core/AVR8/Device_AVR8.o
 .debug_info    0x000000000001b01a     0x1d7b .build/obj_sofle_rev1_default/lib/lufa/LUFA/Drivers/USB/Core/AVR8/EndpointStream_AVR8.o
 .debug_info    0x000000000001cd95      0x720 .build/obj_sofle_rev1_default/lib/lufa/LUFA/Drivers/USB/Core/AVR8/Endpoint_AVR8.o
 .debug_info    0x000000000001d4b5      0x5a4 .build/obj_sofle_rev1_default/lib/lufa/LUFA/Drivers/USB/Core/AVR8/USBController_AVR8.o
 .debug_info    0x000000000001da59      0x9ab .build/obj_sofle_rev1_default/lib/lufa/LUFA/Drivers/USB/Core/AVR8/USBInterrupt_AVR8.o
 .debug_info    0x000000000001e404      0xc64 .build/obj_sofle_rev1_default/lib/lufa/LUFA/Drivers/USB/Core/DeviceStandardReq.o
 .debug_info    0x000000000001f068      0x2c4 .build/obj_sofle_rev1_default/lib/lufa/LUFA/Drivers/USB/Core/USBTask.o
 .debug_info    0x000000000001f32c      0x27f .build/obj_sofle_rev1_default/protocol/lufa/usb_util.o

.debug_abbrev   0x0000000000000000     0x790e
 *(.debug_abbrev)
 .debug_abbrev  0x0000000000000000      0x96a /usr/lib/gcc/avr/11.2.0/../../../../avr/lib/avr5/crtatmega32u4.o
 .debug_abbrev  0x000000000000096a       0xac .build/obj_sofle_rev1_default/keyboards/sofle/sofle.o
 .debug_abbrev  0x0000000000000a16      0x29b .build/obj_sofle_rev1_default/keyboards/sofle/keymaps/default/keymap.o
 .debug_abbrev  0x0000000000000cb1      0x414 .build/obj_sofle_rev1_default/quantum/quantum.o
 .debug_abbrev  0x00000000000010c5       0xec .build/obj_sofle_rev1_default/quantum/bitwise.o
 .debug_abbrev  0x00000000000011b1      0x179 .build/obj_sofle_rev1_default/quantum/led.o
 .debug_abbrev  0x000000000000132a      0x559 .build/obj_sofle_rev1_default/quantum/action.o
 .debug_abbrev  0x0000000000001883      0x377 .build/obj_sofle_rev1_default/quantum/action_layer.o
 .debug_abbrev  0x0000000000001bfa      0x3b7 .build/obj_sofle_rev1_default/quantum/action_tapping.o
 .debug_abbrev  0x0000000000001fb1      0x395 .build/obj_sofle_rev1_default/quantum/action_util.o
 .debug_abbrev  0x0000000000002346      0x192 .build/obj_sofle_rev1_default/quantum/eeconfig.o
 .debug_abbrev  0x00000000000024d8      0x373 .build/obj_sofle_rev1_default/quantum/keyboard.o
 .debug_abbrev  0x000000000000284b      0x2f9 .build/obj_sofle_rev1_default/quantum/keymap_common.o
 .debug_abbrev  0x0000000000002b44      0x119 .build/obj_sofle_rev1_default/quantum/keycode_config.o
 .debug_abbrev  0x0000000000002c5d       0xa2 .build/obj_sofle_rev1_default/quantum/logging/debug.o
 .debug_abbrev  0x0000000000002cff      0x182 .build/obj_sofle_rev1_default/quantum/bootmagic/magic.o
 .debug_abbrev  0x0000000000002e81      0x360 .build/obj_sofle_rev1_default/quantum/matrix_common.o
 .debug_abbrev  0x00000000000031e1      0x3c9 .build/obj_sofle_rev1_default/quantum/matrix.o
 .debug_abbrev  0x00000000000035aa      0x1e8 .build/obj_sofle_rev1_default/quantum/debounce/sym_defer_g.o
 .debug_abbrev  0x0000000000003792      0x2a1 .build/obj_sofle_rev1_default/quantum/split_common/split_util.o
 .debug_abbrev  0x0000000000003a33      0x237 .build/obj_sofle_rev1_default/quantum/split_common/transport.o
 .debug_abbrev  0x0000000000003c6a      0x476 .build/obj_sofle_rev1_default/quantum/split_common/transactions.o
 .debug_abbrev  0x00000000000040e0       0x66 .build/obj_sofle_rev1_default/quantum/main.o
 .debug_abbrev  0x0000000000004146      0x271 .build/obj_sofle_rev1_default/quantum/encoder.o
 .debug_abbrev  0x00000000000043b7       0xb0 .build/obj_sofle_rev1_default/crc.o
 .debug_abbrev  0x0000000000004467      0x51a .build/obj_sofle_rev1_default/ssd1306_sh1106.o
 .debug_abbrev  0x0000000000004981      0x1ad .build/obj_sofle_rev1_default/quantum/process_keycode/process_space_cadet.o
 .debug_abbrev  0x0000000000004b2e      0x16c .build/obj_sofle_rev1_default/quantum/process_keycode/process_magic.o
 .debug_abbrev  0x0000000000004c9a      0x1f7 .build/obj_sofle_rev1_default/quantum/process_keycode/process_grave_esc.o
 .debug_abbrev  0x0000000000004e91      0x1da .build/obj_sofle_rev1_default/i2c_master.a(i2c_master.o)
 .debug_abbrev  0x000000000000506b      0x40e .build/obj_sofle_rev1_default/serial.a(serial.o)
 .debug_abbrev  0x0000000000005479      0x2d1 .build/obj_sofle_rev1_default/common/host.o
 .debug_abbrev  0x000000000000574a      0x1e4 .build/obj_sofle_rev1_default/common/report.o
 .debug_abbrev  0x000000000000592e      0x143 .build/obj_sofle_rev1_default/common/sync_timer.o
 .debug_abbrev  0x0000000000005a71       0x46 .build/obj_sofle_rev1_default/common/avr/platform.o
 .debug_abbrev  0x0000000000005ab7      0x26d .build/obj_sofle_rev1_default/common/avr/suspend.o
 .debug_abbrev  0x0000000000005d24      0x1c1 .build/obj_sofle_rev1_default/common/avr/timer.o
 .debug_abbrev  0x0000000000005ee5      0x14d .build/obj_sofle_rev1_default/common/avr/bootloader.o
 .debug_abbrev  0x0000000000006032       0x9d .build/obj_sofle_rev1_default/common/avr/printf.o
 .debug_abbrev  0x00000000000060cf      0x61d .build/obj_sofle_rev1_default/lufa.o
 .debug_abbrev  0x00000000000066ec      0x189 .build/obj_sofle_rev1_default/usb_descriptor.o
 .debug_abbrev  0x0000000000006875       0x91 .build/obj_sofle_rev1_default/lib/lufa/LUFA/Drivers/USB/Core/AVR8/Device_AVR8.o
 .debug_abbrev  0x0000000000006906      0x252 .build/obj_sofle_rev1_default/lib/lufa/LUFA/Drivers/USB/Core/AVR8/EndpointStream_AVR8.o
 .debug_abbrev  0x0000000000006b58      0x29d .build/obj_sofle_rev1_default/lib/lufa/LUFA/Drivers/USB/Core/AVR8/Endpoint_AVR8.o
 .debug_abbrev  0x0000000000006df5      0x1d2 .build/obj_sofle_rev1_default/lib/lufa/LUFA/Drivers/USB/Core/AVR8/USBController_AVR8.o
 .debug_abbrev  0x0000000000006fc7      0x26e .build/obj_sofle_rev1_default/lib/lufa/LUFA/Drivers/USB/Core/AVR8/USBInterrupt_AVR8.o
 .debug_abbrev  0x0000000000007235      0x370 .build/obj_sofle_rev1_default/lib/lufa/LUFA/Drivers/USB/Core/DeviceStandardReq.o
 .debug_abbrev  0x00000000000075a5      0x1a9 .build/obj_sofle_rev1_default/lib/lufa/LUFA/Drivers/USB/Core/USBTask.o
 .debug_abbrev  0x000000000000774e      0x1c0 .build/obj_sofle_rev1_default/protocol/lufa/usb_util.o

.debug_line     0x0000000000000000    0x16d4f
 *(.debug_line .debug_line.* .debug_line_end)
 .debug_line    0x0000000000000000       0x1d /usr/lib/gcc/avr/11.2.0/../../../../avr/lib/avr5/crtatmega32u4.o
 .debug_line    0x000000000000001d       0x98 .build/obj_sofle_rev1_default/keyboards/sofle/sofle.o
 .debug_line    0x00000000000000b5      0x686 .build/obj_sofle_rev1_default/keyboards/sofle/keymaps/default/keymap.o
 .debug_line    0x000000000000073b      0xb3f .build/obj_sofle_rev1_default/quantum/quantum.o
 .debug_line    0x000000000000127a      0x536 .build/obj_sofle_rev1_default/quantum/bitwise.o
 .debug_line    0x00000000000017b0      0x13e .build/obj_sofle_rev1_default/quantum/led.o
 .debug_line    0x00000000000018ee     0x1821 .build/obj_sofle_rev1_default/quantum/action.o
 .debug_line    0x000000000000310f      0x972 .build/obj_sofle_rev1_default/quantum/action_layer.o
 .debug_line    0x0000000000003a81      0xc42 .build/obj_sofle_rev1_default/quantum/action_tapping.o
 .debug_line    0x00000000000046c3      0xca9 .build/obj_sofle_rev1_default/quantum/action_util.o
 .debug_line    0x000000000000536c      0x4bc .build/obj_sofle_rev1_default/quantum/eeconfig.o
 .debug_line    0x0000000000005828      0x856 .build/obj_sofle_rev1_default/quantum/keyboard.o
 .debug_line    0x000000000000607e      0x568 .build/obj_sofle_rev1_default/quantum/keymap_common.o
 .debug_line    0x00000000000065e6      0x56b .build/obj_sofle_rev1_default/quantum/keycode_config.o
 .debug_line    0x0000000000006b51       0x60 .build/obj_sofle_rev1_default/quantum/logging/debug.o
 .debug_line    0x0000000000006bb1      0x1a0 .build/obj_sofle_rev1_default/quantum/bootmagic/magic.o
 .debug_line    0x0000000000006d51      0x5cf .build/obj_sofle_rev1_default/quantum/matrix_common.o
 .debug_line    0x0000000000007320      0x886 .build/obj_sofle_rev1_default/quantum/matrix.o
 .debug_line    0x0000000000007ba6      0x236 .build/obj_sofle_rev1_default/quantum/debounce/sym_defer_g.o
 .debug_line    0x0000000000007ddc      0x481 .build/obj_sofle_rev1_default/quantum/split_common/split_util.o
 .debug_line    0x000000000000825d      0x2de .build/obj_sofle_rev1_default/quantum/split_common/transport.o
 .debug_line    0x000000000000853b      0xa6c .build/obj_sofle_rev1_default/quantum/split_common/transactions.o
 .debug_line    0x0000000000008fa7       0x8f .build/obj_sofle_rev1_default/quantum/main.o
 .debug_line    0x0000000000009036      0x58e .build/obj_sofle_rev1_default/quantum/encoder.o
 .debug_line    0x00000000000095c4      0x19f .build/obj_sofle_rev1_default/crc.o
 .debug_line    0x0000000000009763     0x1acb .build/obj_sofle_rev1_default/ssd1306_sh1106.o
 .debug_line    0x000000000000b22e      0x3b4 .build/obj_sofle_rev1_default/quantum/process_keycode/process_space_cadet.o
 .debug_line    0x000000000000b5e2      0x3d2 .build/obj_sofle_rev1_default/quantum/process_keycode/process_magic.o
 .debug_line    0x000000000000b9b4      0x1eb .build/obj_sofle_rev1_default/quantum/process_keycode/process_grave_esc.o
 .debug_line    0x000000000000bb9f      0xb82 .build/obj_sofle_rev1_default/i2c_master.a(i2c_master.o)
 .debug_line    0x000000000000c721     0x11ed .build/obj_sofle_rev1_default/serial.a(serial.o)
 .debug_line    0x000000000000d90e      0x565 .build/obj_sofle_rev1_default/common/host.o
 .debug_line    0x000000000000de73      0x3cb .build/obj_sofle_rev1_default/common/report.o
 .debug_line    0x000000000000e23e      0x2d9 .build/obj_sofle_rev1_default/common/sync_timer.o
 .debug_line    0x000000000000e517       0x59 .build/obj_sofle_rev1_default/common/avr/platform.o
 .debug_line    0x000000000000e570      0x3e9 .build/obj_sofle_rev1_default/common/avr/suspend.o
 .debug_line    0x000000000000e959      0x497 .build/obj_sofle_rev1_default/common/avr/timer.o
 .debug_line    0x000000000000edf0      0x1a4 .build/obj_sofle_rev1_default/common/avr/bootloader.o
 .debug_line    0x000000000000ef94       0xa8 .build/obj_sofle_rev1_default/common/avr/printf.o
 .debug_line    0x000000000000f03c     0x16e9 .build/obj_sofle_rev1_default/lufa.o
 .debug_line    0x0000000000010725      0x2b6 .build/obj_sofle_rev1_default/usb_descriptor.o
 .debug_line    0x00000000000109db      0x19e .build/obj_sofle_rev1_default/lib/lufa/LUFA/Drivers/USB/Core/AVR8/Device_AVR8.o
 .debug_line    0x0000000000010b79     0x32d2 .build/obj_sofle_rev1_default/lib/lufa/LUFA/Drivers/USB/Core/AVR8/EndpointStream_AVR8.o
 .debug_line    0x0000000000013e4b      0x992 .build/obj_sofle_rev1_default/lib/lufa/LUFA/Drivers/USB/Core/AVR8/Endpoint_AVR8.o
 .debug_line    0x00000000000147dd      0x640 .build/obj_sofle_rev1_default/lib/lufa/LUFA/Drivers/USB/Core/AVR8/USBController_AVR8.o
 .debug_line    0x0000000000014e1d      0xcd8 .build/obj_sofle_rev1_default/lib/lufa/LUFA/Drivers/USB/Core/AVR8/USBInterrupt_AVR8.o
 .debug_line    0x0000000000015af5      0xd74 .build/obj_sofle_rev1_default/lib/lufa/LUFA/Drivers/USB/Core/DeviceStandardReq.o
 .debug_line    0x0000000000016869      0x24f .build/obj_sofle_rev1_default/lib/lufa/LUFA/Drivers/USB/Core/USBTask.o
 .debug_line    0x0000000000016ab8      0x297 .build/obj_sofle_rev1_default/protocol/lufa/usb_util.o

.debug_frame    0x0000000000000000     0x2e10
 *(.debug_frame)
 .debug_frame   0x0000000000000000       0x4c .build/obj_sofle_rev1_default/keyboards/sofle/keymaps/default/keymap.o
 .debug_frame   0x000000000000004c      0x274 .build/obj_sofle_rev1_default/quantum/quantum.o
 .debug_frame   0x00000000000002c0       0xd8 .build/obj_sofle_rev1_default/quantum/bitwise.o
 .debug_frame   0x0000000000000398       0x7c .build/obj_sofle_rev1_default/quantum/led.o
 .debug_frame   0x0000000000000414      0x298 .build/obj_sofle_rev1_default/quantum/action.o
 .debug_frame   0x00000000000006ac      0x2e0 .build/obj_sofle_rev1_default/quantum/action_layer.o
 .debug_frame   0x000000000000098c       0xe4 .build/obj_sofle_rev1_default/quantum/action_tapping.o
 .debug_frame   0x0000000000000a70      0x348 .build/obj_sofle_rev1_default/quantum/action_util.o
 .debug_frame   0x0000000000000db8      0x1a4 .build/obj_sofle_rev1_default/quantum/eeconfig.o
 .debug_frame   0x0000000000000f5c      0x238 .build/obj_sofle_rev1_default/quantum/keyboard.o
 .debug_frame   0x0000000000001194       0x80 .build/obj_sofle_rev1_default/quantum/keymap_common.o
 .debug_frame   0x0000000000001214       0x34 .build/obj_sofle_rev1_default/quantum/keycode_config.o
 .debug_frame   0x0000000000001248       0x44 .build/obj_sofle_rev1_default/quantum/bootmagic/magic.o
 .debug_frame   0x000000000000128c      0x1a0 .build/obj_sofle_rev1_default/quantum/matrix_common.o
 .debug_frame   0x000000000000142c      0x124 .build/obj_sofle_rev1_default/quantum/matrix.o
 .debug_frame   0x0000000000001550       0x70 .build/obj_sofle_rev1_default/quantum/debounce/sym_defer_g.o
 .debug_frame   0x00000000000015c0       0x90 .build/obj_sofle_rev1_default/quantum/split_common/split_util.o
 .debug_frame   0x0000000000001650       0x8c .build/obj_sofle_rev1_default/quantum/split_common/transport.o
 .debug_frame   0x00000000000016dc      0x1c0 .build/obj_sofle_rev1_default/quantum/split_common/transactions.o
 .debug_frame   0x000000000000189c       0x24 .build/obj_sofle_rev1_default/quantum/main.o
 .debug_frame   0x00000000000018c0       0xa4 .build/obj_sofle_rev1_default/quantum/encoder.o
 .debug_frame   0x0000000000001964       0x34 .build/obj_sofle_rev1_default/crc.o
 .debug_frame   0x0000000000001998      0x3b8 .build/obj_sofle_rev1_default/ssd1306_sh1106.o
 .debug_frame   0x0000000000001d50       0x50 .build/obj_sofle_rev1_default/quantum/process_keycode/process_space_cadet.o
 .debug_frame   0x0000000000001da0       0x30 .build/obj_sofle_rev1_default/quantum/process_keycode/process_magic.o
 .debug_frame   0x0000000000001dd0       0x30 .build/obj_sofle_rev1_default/quantum/process_keycode/process_grave_esc.o
 .debug_frame   0x0000000000001e00      0x1c8 .build/obj_sofle_rev1_default/i2c_master.a(i2c_master.o)
 .debug_frame   0x0000000000001fc8      0x184 .build/obj_sofle_rev1_default/serial.a(serial.o)
 .debug_frame   0x000000000000214c      0x130 .build/obj_sofle_rev1_default/common/host.o
 .debug_frame   0x000000000000227c       0x94 .build/obj_sofle_rev1_default/common/report.o
 .debug_frame   0x0000000000002310       0xc4 .build/obj_sofle_rev1_default/common/sync_timer.o
 .debug_frame   0x00000000000023d4       0x24 .build/obj_sofle_rev1_default/common/avr/platform.o
 .debug_frame   0x00000000000023f8       0xdc .build/obj_sofle_rev1_default/common/avr/suspend.o
 .debug_frame   0x00000000000024d4       0xc0 .build/obj_sofle_rev1_default/common/avr/timer.o
 .debug_frame   0x0000000000002594       0x34 .build/obj_sofle_rev1_default/common/avr/bootloader.o
 .debug_frame   0x00000000000025c8       0x24 .build/obj_sofle_rev1_default/common/avr/printf.o
 .debug_frame   0x00000000000025ec      0x160 .build/obj_sofle_rev1_default/lufa.o
 .debug_frame   0x000000000000274c       0x24 .build/obj_sofle_rev1_default/usb_descriptor.o
 .debug_frame   0x0000000000002770       0x24 .build/obj_sofle_rev1_default/lib/lufa/LUFA/Drivers/USB/Core/AVR8/Device_AVR8.o
 .debug_frame   0x0000000000002794      0x404 .build/obj_sofle_rev1_default/lib/lufa/LUFA/Drivers/USB/Core/AVR8/EndpointStream_AVR8.o
 .debug_frame   0x0000000000002b98       0x78 .build/obj_sofle_rev1_default/lib/lufa/LUFA/Drivers/USB/Core/AVR8/Endpoint_AVR8.o
 .debug_frame   0x0000000000002c10       0x58 .build/obj_sofle_rev1_default/lib/lufa/LUFA/Drivers/USB/Core/AVR8/USBController_AVR8.o
 .debug_frame   0x0000000000002c68       0xfc .build/obj_sofle_rev1_default/lib/lufa/LUFA/Drivers/USB/Core/AVR8/USBInterrupt_AVR8.o
 .debug_frame   0x0000000000002d64       0x3c .build/obj_sofle_rev1_default/lib/lufa/LUFA/Drivers/USB/Core/DeviceStandardReq.o
 .debug_frame   0x0000000000002da0       0x2c .build/obj_sofle_rev1_default/lib/lufa/LUFA/Drivers/USB/Core/USBTask.o
 .debug_frame   0x0000000000002dcc       0x44 .build/obj_sofle_rev1_default/protocol/lufa/usb_util.o

.debug_str      0x0000000000000000     0x72cb
 *(.debug_str)
 .debug_str     0x0000000000000000      0x371 /usr/lib/gcc/avr/11.2.0/../../../../avr/lib/avr5/crtatmega32u4.o
 .debug_str     0x0000000000000371      0x208 .build/obj_sofle_rev1_default/keyboards/sofle/sofle.o
                                        0x241 (size before relaxing)
 .debug_str     0x0000000000000579     0x1cc8 .build/obj_sofle_rev1_default/keyboards/sofle/keymaps/default/keymap.o
                                       0x1f75 (size before relaxing)
 .debug_str     0x0000000000002241      0x394 .build/obj_sofle_rev1_default/quantum/quantum.o
                                       0x1e2c (size before relaxing)
 .debug_str     0x00000000000025d5       0x5a .build/obj_sofle_rev1_default/quantum/bitwise.o
                                        0x207 (size before relaxing)
 .debug_str     0x000000000000262f       0x86 .build/obj_sofle_rev1_default/quantum/led.o
                                        0x249 (size before relaxing)
 .debug_str     0x00000000000026b5      0xa29 .build/obj_sofle_rev1_default/quantum/action.o
                                       0x1748 (size before relaxing)
 .debug_str     0x00000000000030de       0xe7 .build/obj_sofle_rev1_default/quantum/action_layer.o
                                        0x56e (size before relaxing)
 .debug_str     0x00000000000031c5       0xef .build/obj_sofle_rev1_default/quantum/action_tapping.o
                                        0xb34 (size before relaxing)
 .debug_str     0x00000000000032b4      0x2a6 .build/obj_sofle_rev1_default/quantum/action_util.o
                                        0x828 (size before relaxing)
 .debug_str     0x000000000000355a      0x25b .build/obj_sofle_rev1_default/quantum/eeconfig.o
                                        0x46e (size before relaxing)
 .debug_str     0x00000000000037b5      0x3de .build/obj_sofle_rev1_default/quantum/keyboard.o
                                        0x6e9 (size before relaxing)
 .debug_str     0x0000000000003b93       0xa3 .build/obj_sofle_rev1_default/quantum/keymap_common.o
                                       0x22f3 (size before relaxing)
 .debug_str     0x0000000000003c36       0x19 .build/obj_sofle_rev1_default/quantum/keycode_config.o
                                        0x8b5 (size before relaxing)
 .debug_str     0x0000000000003c4f       0x18 .build/obj_sofle_rev1_default/quantum/logging/debug.o
                                        0x1f6 (size before relaxing)
 .debug_str     0x0000000000003c67       0x24 .build/obj_sofle_rev1_default/quantum/bootmagic/magic.o
                                        0x404 (size before relaxing)
 .debug_str     0x0000000000003c8b      0x161 .build/obj_sofle_rev1_default/quantum/matrix_common.o
                                        0x485 (size before relaxing)
 .debug_str     0x0000000000003dec      0x27b .build/obj_sofle_rev1_default/quantum/matrix.o
                                        0x577 (size before relaxing)
 .debug_str     0x0000000000004067       0x88 .build/obj_sofle_rev1_default/quantum/debounce/sym_defer_g.o
                                        0x2fa (size before relaxing)
 .debug_str     0x00000000000040ef       0xe5 .build/obj_sofle_rev1_default/quantum/split_common/split_util.o
                                        0x418 (size before relaxing)
 .debug_str     0x00000000000041d4      0x257 .build/obj_sofle_rev1_default/quantum/split_common/transport.o
                                        0x627 (size before relaxing)
 .debug_str     0x000000000000442b      0x203 .build/obj_sofle_rev1_default/quantum/split_common/transactions.o
                                        0x802 (size before relaxing)
 .debug_str     0x000000000000462e       0x4e .build/obj_sofle_rev1_default/quantum/main.o
                                        0x1f4 (size before relaxing)
 .debug_str     0x000000000000467c       0xc1 .build/obj_sofle_rev1_default/quantum/encoder.o
                                        0x397 (size before relaxing)
 .debug_str     0x000000000000473d       0x2b .build/obj_sofle_rev1_default/crc.o
                                        0x1e6 (size before relaxing)
 .debug_str     0x0000000000004768      0x55b .build/obj_sofle_rev1_default/ssd1306_sh1106.o
                                        0x88e (size before relaxing)
 .debug_str     0x0000000000004cc3       0x6d .build/obj_sofle_rev1_default/quantum/process_keycode/process_space_cadet.o
                                       0x1a80 (size before relaxing)
 .debug_str     0x0000000000004d30       0x28 .build/obj_sofle_rev1_default/quantum/process_keycode/process_magic.o
                                       0x14e9 (size before relaxing)
 .debug_str     0x0000000000004d58       0x42 .build/obj_sofle_rev1_default/quantum/process_keycode/process_grave_esc.o
                                       0x1aa4 (size before relaxing)
 .debug_str     0x0000000000004d9a      0x1ab .build/obj_sofle_rev1_default/i2c_master.a(i2c_master.o)
                                        0x2d2 (size before relaxing)
 .debug_str     0x0000000000004f45      0x190 .build/obj_sofle_rev1_default/serial.a(serial.o)
                                        0x653 (size before relaxing)
 .debug_str     0x00000000000050d5      0x177 .build/obj_sofle_rev1_default/common/host.o
                                        0x506 (size before relaxing)
 .debug_str     0x000000000000524c       0x47 .build/obj_sofle_rev1_default/common/report.o
                                        0x845 (size before relaxing)
 .debug_str     0x0000000000005293       0x63 .build/obj_sofle_rev1_default/common/sync_timer.o
                                        0x2a0 (size before relaxing)
 .debug_str     0x00000000000052f6       0x1f .build/obj_sofle_rev1_default/common/avr/platform.o
                                        0x1bc (size before relaxing)
 .debug_str     0x0000000000005315      0x1de .build/obj_sofle_rev1_default/common/avr/suspend.o
                                        0x3f3 (size before relaxing)
 .debug_str     0x00000000000054f3       0x49 .build/obj_sofle_rev1_default/common/avr/timer.o
                                        0x261 (size before relaxing)
 .debug_str     0x000000000000553c       0x6e .build/obj_sofle_rev1_default/common/avr/bootloader.o
                                        0x24c (size before relaxing)
 .debug_str     0x00000000000055aa       0x27 .build/obj_sofle_rev1_default/common/avr/printf.o
                                        0x1ec (size before relaxing)
 .debug_str     0x00000000000055d1      0x7af .build/obj_sofle_rev1_default/lufa.o
                                        0xcfb (size before relaxing)
 .debug_str     0x0000000000005d80      0x6fc .build/obj_sofle_rev1_default/usb_descriptor.o
                                        0xa66 (size before relaxing)
 .debug_str     0x000000000000647c       0x5e .build/obj_sofle_rev1_default/lib/lufa/LUFA/Drivers/USB/Core/AVR8/Device_AVR8.o
                                        0x216 (size before relaxing)
 .debug_str     0x00000000000064da      0x4a3 .build/obj_sofle_rev1_default/lib/lufa/LUFA/Drivers/USB/Core/AVR8/EndpointStream_AVR8.o
                                        0x878 (size before relaxing)
 .debug_str     0x000000000000697d      0x20d .build/obj_sofle_rev1_default/lib/lufa/LUFA/Drivers/USB/Core/AVR8/Endpoint_AVR8.o
                                        0x638 (size before relaxing)
 .debug_str     0x0000000000006b8a      0x1c0 .build/obj_sofle_rev1_default/lib/lufa/LUFA/Drivers/USB/Core/AVR8/USBController_AVR8.o
                                        0x577 (size before relaxing)
 .debug_str     0x0000000000006d4a      0x10c .build/obj_sofle_rev1_default/lib/lufa/LUFA/Drivers/USB/Core/AVR8/USBInterrupt_AVR8.o
                                        0x5f6 (size before relaxing)
 .debug_str     0x0000000000006e56      0x3fa .build/obj_sofle_rev1_default/lib/lufa/LUFA/Drivers/USB/Core/DeviceStandardReq.o
                                        0x9c7 (size before relaxing)
 .debug_str     0x0000000000007250       0x45 .build/obj_sofle_rev1_default/lib/lufa/LUFA/Drivers/USB/Core/USBTask.o
                                        0x39d (size before relaxing)
 .debug_str     0x0000000000007295       0x36 .build/obj_sofle_rev1_default/protocol/lufa/usb_util.o
                                        0x33f (size before relaxing)

.debug_loc      0x0000000000000000     0xe8fe
 *(.debug_loc)
 .debug_loc     0x0000000000000000      0x54c .build/obj_sofle_rev1_default/keyboards/sofle/keymaps/default/keymap.o
 .debug_loc     0x000000000000054c      0xa48 .build/obj_sofle_rev1_default/quantum/quantum.o
 .debug_loc     0x0000000000000f94      0x503 .build/obj_sofle_rev1_default/quantum/bitwise.o
 .debug_loc     0x0000000000001497       0xb0 .build/obj_sofle_rev1_default/quantum/led.o
 .debug_loc     0x0000000000001547      0xf6a .build/obj_sofle_rev1_default/quantum/action.o
 .debug_loc     0x00000000000024b1      0xb28 .build/obj_sofle_rev1_default/quantum/action_layer.o
 .debug_loc     0x0000000000002fd9      0x4f0 .build/obj_sofle_rev1_default/quantum/action_tapping.o
 .debug_loc     0x00000000000034c9      0x37d .build/obj_sofle_rev1_default/quantum/action_util.o
 .debug_loc     0x0000000000003846      0x203 .build/obj_sofle_rev1_default/quantum/eeconfig.o
 .debug_loc     0x0000000000003a49      0x465 .build/obj_sofle_rev1_default/quantum/keyboard.o
 .debug_loc     0x0000000000003eae      0x5d7 .build/obj_sofle_rev1_default/quantum/keymap_common.o
 .debug_loc     0x0000000000004485      0x203 .build/obj_sofle_rev1_default/quantum/keycode_config.o
 .debug_loc     0x0000000000004688       0x74 .build/obj_sofle_rev1_default/quantum/bootmagic/magic.o
 .debug_loc     0x00000000000046fc      0x392 .build/obj_sofle_rev1_default/quantum/matrix_common.o
 .debug_loc     0x0000000000004a8e      0x66b .build/obj_sofle_rev1_default/quantum/matrix.o
 .debug_loc     0x00000000000050f9      0x17c .build/obj_sofle_rev1_default/quantum/debounce/sym_defer_g.o
 .debug_loc     0x0000000000005275      0x1a7 .build/obj_sofle_rev1_default/quantum/split_common/split_util.o
 .debug_loc     0x000000000000541c      0x235 .build/obj_sofle_rev1_default/quantum/split_common/transport.o
 .debug_loc     0x0000000000005651      0xc07 .build/obj_sofle_rev1_default/quantum/split_common/transactions.o
 .debug_loc     0x0000000000006258      0x375 .build/obj_sofle_rev1_default/quantum/encoder.o
 .debug_loc     0x00000000000065cd      0x159 .build/obj_sofle_rev1_default/crc.o
 .debug_loc     0x0000000000006726     0x14df .build/obj_sofle_rev1_default/ssd1306_sh1106.o
 .debug_loc     0x0000000000007c05      0x4a6 .build/obj_sofle_rev1_default/quantum/process_keycode/process_space_cadet.o
 .debug_loc     0x00000000000080ab       0xdb .build/obj_sofle_rev1_default/quantum/process_keycode/process_magic.o
 .debug_loc     0x0000000000008186      0x143 .build/obj_sofle_rev1_default/quantum/process_keycode/process_grave_esc.o
 .debug_loc     0x00000000000082c9      0xd62 .build/obj_sofle_rev1_default/i2c_master.a(i2c_master.o)
 .debug_loc     0x000000000000902b      0xc41 .build/obj_sofle_rev1_default/serial.a(serial.o)
 .debug_loc     0x0000000000009c6c      0x284 .build/obj_sofle_rev1_default/common/host.o
 .debug_loc     0x0000000000009ef0      0x357 .build/obj_sofle_rev1_default/common/report.o
 .debug_loc     0x000000000000a247      0x20a .build/obj_sofle_rev1_default/common/sync_timer.o
 .debug_loc     0x000000000000a451       0xdf .build/obj_sofle_rev1_default/common/avr/suspend.o
 .debug_loc     0x000000000000a530      0x321 .build/obj_sofle_rev1_default/common/avr/timer.o
 .debug_loc     0x000000000000a851       0x16 .build/obj_sofle_rev1_default/common/avr/bootloader.o
 .debug_loc     0x000000000000a867      0x7a7 .build/obj_sofle_rev1_default/lufa.o
 .debug_loc     0x000000000000b00e      0x354 .build/obj_sofle_rev1_default/usb_descriptor.o
 .debug_loc     0x000000000000b362     0x271c .build/obj_sofle_rev1_default/lib/lufa/LUFA/Drivers/USB/Core/AVR8/EndpointStream_AVR8.o
 .debug_loc     0x000000000000da7e      0x4bd .build/obj_sofle_rev1_default/lib/lufa/LUFA/Drivers/USB/Core/AVR8/Endpoint_AVR8.o
 .debug_loc     0x000000000000df3b       0xf9 .build/obj_sofle_rev1_default/lib/lufa/LUFA/Drivers/USB/Core/AVR8/USBController_AVR8.o
 .debug_loc     0x000000000000e034      0x495 .build/obj_sofle_rev1_default/lib/lufa/LUFA/Drivers/USB/Core/AVR8/USBInterrupt_AVR8.o
 .debug_loc     0x000000000000e4c9      0x388 .build/obj_sofle_rev1_default/lib/lufa/LUFA/Drivers/USB/Core/DeviceStandardReq.o
 .debug_loc     0x000000000000e851       0x62 .build/obj_sofle_rev1_default/lib/lufa/LUFA/Drivers/USB/Core/USBTask.o
 .debug_loc     0x000000000000e8b3       0x4b .build/obj_sofle_rev1_default/protocol/lufa/usb_util.o

.debug_macinfo
 *(.debug_macinfo)

.debug_weaknames
 *(.debug_weaknames)

.debug_funcnames
 *(.debug_funcnames)

.debug_typenames
 *(.debug_typenames)

.debug_varnames
 *(.debug_varnames)

.debug_pubtypes
 *(.debug_pubtypes)

.debug_ranges   0x0000000000000000     0x1840
 *(.debug_ranges)
 .debug_ranges  0x0000000000000000       0x20 .build/obj_sofle_rev1_default/keyboards/sofle/keymaps/default/keymap.o
 .debug_ranges  0x0000000000000020       0xd8 .build/obj_sofle_rev1_default/quantum/quantum.o
 .debug_ranges  0x00000000000000f8       0x50 .build/obj_sofle_rev1_default/quantum/bitwise.o
 .debug_ranges  0x0000000000000148       0x38 .build/obj_sofle_rev1_default/quantum/led.o
 .debug_ranges  0x0000000000000180      0x190 .build/obj_sofle_rev1_default/quantum/action.o
 .debug_ranges  0x0000000000000310      0x128 .build/obj_sofle_rev1_default/quantum/action_layer.o
 .debug_ranges  0x0000000000000438       0xf0 .build/obj_sofle_rev1_default/quantum/action_tapping.o
 .debug_ranges  0x0000000000000528      0x188 .build/obj_sofle_rev1_default/quantum/action_util.o
 .debug_ranges  0x00000000000006b0       0xc8 .build/obj_sofle_rev1_default/quantum/eeconfig.o
 .debug_ranges  0x0000000000000778       0xf8 .build/obj_sofle_rev1_default/quantum/keyboard.o
 .debug_ranges  0x0000000000000870       0x38 .build/obj_sofle_rev1_default/quantum/keymap_common.o
 .debug_ranges  0x00000000000008a8       0x18 .build/obj_sofle_rev1_default/quantum/keycode_config.o
 .debug_ranges  0x00000000000008c0       0x18 .build/obj_sofle_rev1_default/quantum/bootmagic/magic.o
 .debug_ranges  0x00000000000008d8       0xc0 .build/obj_sofle_rev1_default/quantum/matrix_common.o
 .debug_ranges  0x0000000000000998       0xc0 .build/obj_sofle_rev1_default/quantum/matrix.o
 .debug_ranges  0x0000000000000a58       0x40 .build/obj_sofle_rev1_default/quantum/debounce/sym_defer_g.o
 .debug_ranges  0x0000000000000a98       0x50 .build/obj_sofle_rev1_default/quantum/split_common/split_util.o
 .debug_ranges  0x0000000000000ae8       0x30 .build/obj_sofle_rev1_default/quantum/split_common/transport.o
 .debug_ranges  0x0000000000000b18       0x78 .build/obj_sofle_rev1_default/quantum/split_common/transactions.o
 .debug_ranges  0x0000000000000b90       0x10 .build/obj_sofle_rev1_default/quantum/main.o
 .debug_ranges  0x0000000000000ba0       0x58 .build/obj_sofle_rev1_default/quantum/encoder.o
 .debug_ranges  0x0000000000000bf8       0x18 .build/obj_sofle_rev1_default/crc.o
 .debug_ranges  0x0000000000000c10      0x2b8 .build/obj_sofle_rev1_default/ssd1306_sh1106.o
 .debug_ranges  0x0000000000000ec8       0x18 .build/obj_sofle_rev1_default/quantum/process_keycode/process_space_cadet.o
 .debug_ranges  0x0000000000000ee0       0x10 .build/obj_sofle_rev1_default/quantum/process_keycode/process_magic.o
 .debug_ranges  0x0000000000000ef0       0x28 .build/obj_sofle_rev1_default/quantum/process_keycode/process_grave_esc.o
 .debug_ranges  0x0000000000000f18       0xe8 .build/obj_sofle_rev1_default/i2c_master.a(i2c_master.o)
 .debug_ranges  0x0000000000001000       0xf8 .build/obj_sofle_rev1_default/serial.a(serial.o)
 .debug_ranges  0x00000000000010f8       0x70 .build/obj_sofle_rev1_default/common/host.o
 .debug_ranges  0x0000000000001168       0x60 .build/obj_sofle_rev1_default/common/report.o
 .debug_ranges  0x00000000000011c8       0x38 .build/obj_sofle_rev1_default/common/sync_timer.o
 .debug_ranges  0x0000000000001200       0x10 .build/obj_sofle_rev1_default/common/avr/platform.o
 .debug_ranges  0x0000000000001210       0x60 .build/obj_sofle_rev1_default/common/avr/suspend.o
 .debug_ranges  0x0000000000001270       0x40 .build/obj_sofle_rev1_default/common/avr/timer.o
 .debug_ranges  0x00000000000012b0       0x18 .build/obj_sofle_rev1_default/common/avr/bootloader.o
 .debug_ranges  0x00000000000012c8       0x10 .build/obj_sofle_rev1_default/common/avr/printf.o
 .debug_ranges  0x00000000000012d8      0x100 .build/obj_sofle_rev1_default/lufa.o
 .debug_ranges  0x00000000000013d8       0x28 .build/obj_sofle_rev1_default/usb_descriptor.o
 .debug_ranges  0x0000000000001400       0x10 .build/obj_sofle_rev1_default/lib/lufa/LUFA/Drivers/USB/Core/AVR8/Device_AVR8.o
 .debug_ranges  0x0000000000001410      0x1f8 .build/obj_sofle_rev1_default/lib/lufa/LUFA/Drivers/USB/Core/AVR8/EndpointStream_AVR8.o
 .debug_ranges  0x0000000000001608       0xd0 .build/obj_sofle_rev1_default/lib/lufa/LUFA/Drivers/USB/Core/AVR8/Endpoint_AVR8.o
 .debug_ranges  0x00000000000016d8       0x20 .build/obj_sofle_rev1_default/lib/lufa/LUFA/Drivers/USB/Core/AVR8/USBController_AVR8.o
 .debug_ranges  0x00000000000016f8       0x28 .build/obj_sofle_rev1_default/lib/lufa/LUFA/Drivers/USB/Core/AVR8/USBInterrupt_AVR8.o
 .debug_ranges  0x0000000000001720       0xf0 .build/obj_sofle_rev1_default/lib/lufa/LUFA/Drivers/USB/Core/DeviceStandardReq.o
 .debug_ranges  0x0000000000001810       0x10 .build/obj_sofle_rev1_default/lib/lufa/LUFA/Drivers/USB/Core/USBTask.o
 .debug_ranges  0x0000000000001820       0x20 .build/obj_sofle_rev1_default/protocol/lufa/usb_util.o

.debug_addr
 *(.debug_addr)

.debug_line_str
 *(.debug_line_str)

.debug_loclists
 *(.debug_loclists)

.debug_macro
 *(.debug_macro)

.debug_names
 *(.debug_names)

.debug_rnglists
 *(.debug_rnglists)

.debug_str_offsets
 *(.debug_str_offsets)

.debug_sup
 *(.debug_sup)
OUTPUT(.build/sofle_rev1_default.elf elf32-avr)
LOAD linker stubs

Cross Reference Table

Symbol                                            File
CALLBACK_HIDParser_FilterHIDReportItem            .build/obj_sofle_rev1_default/lib/lufa/LUFA/Drivers/USB/Class/Common/HIDParser.o
CALLBACK_USB_GetDescriptor                        .build/obj_sofle_rev1_default/lufa.o
                                                  .build/obj_sofle_rev1_default/lib/lufa/LUFA/Drivers/USB/Core/DeviceStandardReq.o
ConfigurationDescriptor                           .build/obj_sofle_rev1_default/usb_descriptor.o
ConsoleReport                                     .build/obj_sofle_rev1_default/usb_descriptor.o
DeviceDescriptor                                  .build/obj_sofle_rev1_default/usb_descriptor.o
EVENT_USB_Device_ConfigurationChanged             .build/obj_sofle_rev1_default/lufa.o
                                                  .build/obj_sofle_rev1_default/lib/lufa/LUFA/Drivers/USB/Core/DeviceStandardReq.o
EVENT_USB_Device_Connect                          .build/obj_sofle_rev1_default/lufa.o
                                                  .build/obj_sofle_rev1_default/lib/lufa/LUFA/Drivers/USB/Core/AVR8/USBInterrupt_AVR8.o
EVENT_USB_Device_ControlRequest                   .build/obj_sofle_rev1_default/lufa.o
                                                  .build/obj_sofle_rev1_default/lib/lufa/LUFA/Drivers/USB/Core/DeviceStandardReq.o
EVENT_USB_Device_Disconnect                       .build/obj_sofle_rev1_default/lufa.o
                                                  .build/obj_sofle_rev1_default/lib/lufa/LUFA/Drivers/USB/Core/AVR8/USBInterrupt_AVR8.o
EVENT_USB_Device_Reset                            .build/obj_sofle_rev1_default/lufa.o
                                                  .build/obj_sofle_rev1_default/lib/lufa/LUFA/Drivers/USB/Core/AVR8/USBInterrupt_AVR8.o
EVENT_USB_Device_StartOfFrame                     .build/obj_sofle_rev1_default/lufa.o
                                                  .build/obj_sofle_rev1_default/lib/lufa/LUFA/Drivers/USB/Core/AVR8/USBInterrupt_AVR8.o
EVENT_USB_Device_Suspend                          .build/obj_sofle_rev1_default/lufa.o
                                                  .build/obj_sofle_rev1_default/lib/lufa/LUFA/Drivers/USB/Core/AVR8/USBInterrupt_AVR8.o
EVENT_USB_Device_WakeUp                           .build/obj_sofle_rev1_default/lufa.o
                                                  .build/obj_sofle_rev1_default/lib/lufa/LUFA/Drivers/USB/Core/AVR8/USBInterrupt_AVR8.o
Endpoint_ClearEndpoints                           .build/obj_sofle_rev1_default/lib/lufa/LUFA/Drivers/USB/Core/AVR8/Endpoint_AVR8.o
Endpoint_ClearStatusStage                         .build/obj_sofle_rev1_default/lib/lufa/LUFA/Drivers/USB/Core/AVR8/Endpoint_AVR8.o
                                                  .build/obj_sofle_rev1_default/lib/lufa/LUFA/Drivers/USB/Core/DeviceStandardReq.o
                                                  .build/obj_sofle_rev1_default/lufa.o
Endpoint_ConfigureEndpointTable                   .build/obj_sofle_rev1_default/lib/lufa/LUFA/Drivers/USB/Core/AVR8/Endpoint_AVR8.o
Endpoint_ConfigureEndpoint_Prv                    .build/obj_sofle_rev1_default/lib/lufa/LUFA/Drivers/USB/Core/AVR8/Endpoint_AVR8.o
                                                  .build/obj_sofle_rev1_default/lib/lufa/LUFA/Drivers/USB/Core/AVR8/USBInterrupt_AVR8.o
                                                  .build/obj_sofle_rev1_default/lib/lufa/LUFA/Drivers/USB/Core/AVR8/USBController_AVR8.o
                                                  .build/obj_sofle_rev1_default/lufa.o
Endpoint_Discard_Stream                           .build/obj_sofle_rev1_default/lib/lufa/LUFA/Drivers/USB/Core/AVR8/EndpointStream_AVR8.o
Endpoint_Null_Stream                              .build/obj_sofle_rev1_default/lib/lufa/LUFA/Drivers/USB/Core/AVR8/EndpointStream_AVR8.o
Endpoint_Read_Control_EStream_BE                  .build/obj_sofle_rev1_default/lib/lufa/LUFA/Drivers/USB/Core/AVR8/EndpointStream_AVR8.o
Endpoint_Read_Control_EStream_LE                  .build/obj_sofle_rev1_default/lib/lufa/LUFA/Drivers/USB/Core/AVR8/EndpointStream_AVR8.o
Endpoint_Read_Control_Stream_BE                   .build/obj_sofle_rev1_default/lib/lufa/LUFA/Drivers/USB/Core/AVR8/EndpointStream_AVR8.o
Endpoint_Read_Control_Stream_LE                   .build/obj_sofle_rev1_default/lib/lufa/LUFA/Drivers/USB/Core/AVR8/EndpointStream_AVR8.o
Endpoint_Read_EStream_BE                          .build/obj_sofle_rev1_default/lib/lufa/LUFA/Drivers/USB/Core/AVR8/EndpointStream_AVR8.o
Endpoint_Read_EStream_LE                          .build/obj_sofle_rev1_default/lib/lufa/LUFA/Drivers/USB/Core/AVR8/EndpointStream_AVR8.o
Endpoint_Read_Stream_BE                           .build/obj_sofle_rev1_default/lib/lufa/LUFA/Drivers/USB/Core/AVR8/EndpointStream_AVR8.o
Endpoint_Read_Stream_LE                           .build/obj_sofle_rev1_default/lib/lufa/LUFA/Drivers/USB/Core/AVR8/EndpointStream_AVR8.o
Endpoint_WaitUntilReady                           .build/obj_sofle_rev1_default/lib/lufa/LUFA/Drivers/USB/Core/AVR8/Endpoint_AVR8.o
                                                  .build/obj_sofle_rev1_default/lib/lufa/LUFA/Drivers/USB/Core/AVR8/EndpointStream_AVR8.o
Endpoint_Write_Control_EStream_BE                 .build/obj_sofle_rev1_default/lib/lufa/LUFA/Drivers/USB/Core/AVR8/EndpointStream_AVR8.o
Endpoint_Write_Control_EStream_LE                 .build/obj_sofle_rev1_default/lib/lufa/LUFA/Drivers/USB/Core/AVR8/EndpointStream_AVR8.o
Endpoint_Write_Control_PStream_BE                 .build/obj_sofle_rev1_default/lib/lufa/LUFA/Drivers/USB/Core/AVR8/EndpointStream_AVR8.o
Endpoint_Write_Control_PStream_LE                 .build/obj_sofle_rev1_default/lib/lufa/LUFA/Drivers/USB/Core/AVR8/EndpointStream_AVR8.o
                                                  .build/obj_sofle_rev1_default/lib/lufa/LUFA/Drivers/USB/Core/DeviceStandardReq.o
Endpoint_Write_Control_Stream_BE                  .build/obj_sofle_rev1_default/lib/lufa/LUFA/Drivers/USB/Core/AVR8/EndpointStream_AVR8.o
Endpoint_Write_Control_Stream_LE                  .build/obj_sofle_rev1_default/lib/lufa/LUFA/Drivers/USB/Core/AVR8/EndpointStream_AVR8.o
                                                  .build/obj_sofle_rev1_default/lib/lufa/LUFA/Drivers/USB/Core/DeviceStandardReq.o
                                                  .build/obj_sofle_rev1_default/lufa.o
Endpoint_Write_EStream_BE                         .build/obj_sofle_rev1_default/lib/lufa/LUFA/Drivers/USB/Core/AVR8/EndpointStream_AVR8.o
Endpoint_Write_EStream_LE                         .build/obj_sofle_rev1_default/lib/lufa/LUFA/Drivers/USB/Core/AVR8/EndpointStream_AVR8.o
Endpoint_Write_PStream_BE                         .build/obj_sofle_rev1_default/lib/lufa/LUFA/Drivers/USB/Core/AVR8/EndpointStream_AVR8.o
Endpoint_Write_PStream_LE                         .build/obj_sofle_rev1_default/lib/lufa/LUFA/Drivers/USB/Core/AVR8/EndpointStream_AVR8.o
Endpoint_Write_Stream_BE                          .build/obj_sofle_rev1_default/lib/lufa/LUFA/Drivers/USB/Core/AVR8/EndpointStream_AVR8.o
Endpoint_Write_Stream_LE                          .build/obj_sofle_rev1_default/lib/lufa/LUFA/Drivers/USB/Core/AVR8/EndpointStream_AVR8.o
                                                  .build/obj_sofle_rev1_default/lufa.o
KeyboardReport                                    .build/obj_sofle_rev1_default/usb_descriptor.o
LanguageString                                    .build/obj_sofle_rev1_default/usb_descriptor.o
ManufacturerString                                .build/obj_sofle_rev1_default/usb_descriptor.o
ProductString                                     .build/obj_sofle_rev1_default/usb_descriptor.o
SharedReport                                      .build/obj_sofle_rev1_default/usb_descriptor.o
USB_ControlRequest                                .build/obj_sofle_rev1_default/lib/lufa/LUFA/Drivers/USB/Core/USBTask.o
                                                  .build/obj_sofle_rev1_default/lib/lufa/LUFA/Drivers/USB/Core/DeviceStandardReq.o
                                                  .build/obj_sofle_rev1_default/lib/lufa/LUFA/Drivers/USB/Core/AVR8/Endpoint_AVR8.o
                                                  .build/obj_sofle_rev1_default/lib/lufa/LUFA/Drivers/USB/Core/AVR8/EndpointStream_AVR8.o
                                                  .build/obj_sofle_rev1_default/lufa.o
USB_DeviceState                                   .build/obj_sofle_rev1_default/lib/lufa/LUFA/Drivers/USB/Core/USBTask.o
                                                  .build/obj_sofle_rev1_default/protocol/lufa/usb_util.o
                                                  .build/obj_sofle_rev1_default/lib/lufa/LUFA/Drivers/USB/Core/DeviceStandardReq.o
                                                  .build/obj_sofle_rev1_default/lib/lufa/LUFA/Drivers/USB/Core/AVR8/USBInterrupt_AVR8.o
                                                  .build/obj_sofle_rev1_default/lib/lufa/LUFA/Drivers/USB/Core/AVR8/USBController_AVR8.o
                                                  .build/obj_sofle_rev1_default/lib/lufa/LUFA/Drivers/USB/Core/AVR8/Endpoint_AVR8.o
                                                  .build/obj_sofle_rev1_default/lib/lufa/LUFA/Drivers/USB/Core/AVR8/EndpointStream_AVR8.o
                                                  .build/obj_sofle_rev1_default/lufa.o
                                                  .build/obj_sofle_rev1_default/common/avr/suspend.o
USB_Device_ConfigurationNumber                    .build/obj_sofle_rev1_default/lib/lufa/LUFA/Drivers/USB/Core/DeviceStandardReq.o
                                                  .build/obj_sofle_rev1_default/lib/lufa/LUFA/Drivers/USB/Core/AVR8/USBInterrupt_AVR8.o
                                                  .build/obj_sofle_rev1_default/lib/lufa/LUFA/Drivers/USB/Core/AVR8/USBController_AVR8.o
USB_Device_CurrentlySelfPowered                   .build/obj_sofle_rev1_default/lib/lufa/LUFA/Drivers/USB/Core/DeviceStandardReq.o
                                                  .build/obj_sofle_rev1_default/lib/lufa/LUFA/Drivers/USB/Core/AVR8/USBController_AVR8.o
USB_Device_ProcessControlRequest                  .build/obj_sofle_rev1_default/lib/lufa/LUFA/Drivers/USB/Core/DeviceStandardReq.o
                                                  .build/obj_sofle_rev1_default/lib/lufa/LUFA/Drivers/USB/Core/USBTask.o
                                                  .build/obj_sofle_rev1_default/lib/lufa/LUFA/Drivers/USB/Core/AVR8/USBInterrupt_AVR8.o
USB_Device_RemoteWakeupEnabled                    .build/obj_sofle_rev1_default/lib/lufa/LUFA/Drivers/USB/Core/DeviceStandardReq.o
                                                  .build/obj_sofle_rev1_default/lib/lufa/LUFA/Drivers/USB/Core/AVR8/USBController_AVR8.o
                                                  .build/obj_sofle_rev1_default/lufa.o
USB_Device_SendRemoteWakeup                       .build/obj_sofle_rev1_default/lib/lufa/LUFA/Drivers/USB/Core/AVR8/Device_AVR8.o
                                                  .build/obj_sofle_rev1_default/lufa.o
USB_Disable                                       .build/obj_sofle_rev1_default/lib/lufa/LUFA/Drivers/USB/Core/AVR8/USBController_AVR8.o
                                                  .build/obj_sofle_rev1_default/protocol/lufa/usb_util.o
                                                  .build/obj_sofle_rev1_default/lufa.o
USB_Event_Stub                                    .build/obj_sofle_rev1_default/lib/lufa/LUFA/Drivers/USB/Core/Events.o
USB_Event_Stub_2                                  .build/obj_sofle_rev1_default/lib/lufa/LUFA/Drivers/USB/Core/Events.o
USB_Event_Stub_3                                  .build/obj_sofle_rev1_default/lib/lufa/LUFA/Drivers/USB/Core/Events.o
USB_GetHIDReportItemInfo                          .build/obj_sofle_rev1_default/lib/lufa/LUFA/Drivers/USB/Class/Common/HIDParser.o
USB_GetHIDReportSize                              .build/obj_sofle_rev1_default/lib/lufa/LUFA/Drivers/USB/Class/Common/HIDParser.o
USB_GetNextDescriptorComp                         .build/obj_sofle_rev1_default/lib/lufa/LUFA/Drivers/USB/Core/ConfigDescriptors.o
USB_GetNextDescriptorOfType                       .build/obj_sofle_rev1_default/lib/lufa/LUFA/Drivers/USB/Core/ConfigDescriptors.o
USB_GetNextDescriptorOfTypeAfter                  .build/obj_sofle_rev1_default/lib/lufa/LUFA/Drivers/USB/Core/ConfigDescriptors.o
USB_GetNextDescriptorOfTypeBefore                 .build/obj_sofle_rev1_default/lib/lufa/LUFA/Drivers/USB/Core/ConfigDescriptors.o
USB_INT_ClearAllInterrupts                        .build/obj_sofle_rev1_default/lib/lufa/LUFA/Drivers/USB/Core/AVR8/USBInterrupt_AVR8.o
                                                  .build/obj_sofle_rev1_default/lib/lufa/LUFA/Drivers/USB/Core/AVR8/USBController_AVR8.o
USB_INT_DisableAllInterrupts                      .build/obj_sofle_rev1_default/lib/lufa/LUFA/Drivers/USB/Core/AVR8/USBInterrupt_AVR8.o
                                                  .build/obj_sofle_rev1_default/lib/lufa/LUFA/Drivers/USB/Core/AVR8/USBController_AVR8.o
USB_Init                                          .build/obj_sofle_rev1_default/lib/lufa/LUFA/Drivers/USB/Core/AVR8/USBController_AVR8.o
                                                  .build/obj_sofle_rev1_default/lufa.o
USB_IsInitialized                                 .build/obj_sofle_rev1_default/lib/lufa/LUFA/Drivers/USB/Core/USBTask.o
                                                  .build/obj_sofle_rev1_default/lib/lufa/LUFA/Drivers/USB/Core/AVR8/USBController_AVR8.o
                                                  .build/obj_sofle_rev1_default/lufa.o
USB_ProcessHIDReport                              .build/obj_sofle_rev1_default/lib/lufa/LUFA/Drivers/USB/Class/Common/HIDParser.o
USB_ResetInterface                                .build/obj_sofle_rev1_default/lib/lufa/LUFA/Drivers/USB/Core/AVR8/USBController_AVR8.o
USB_SetHIDReportItemInfo                          .build/obj_sofle_rev1_default/lib/lufa/LUFA/Drivers/USB/Class/Common/HIDParser.o
USB_USBTask                                       .build/obj_sofle_rev1_default/lib/lufa/LUFA/Drivers/USB/Core/USBTask.o
                                                  .build/obj_sofle_rev1_default/lufa.o
__bad_interrupt                                   /usr/lib/gcc/avr/11.2.0/../../../../avr/lib/avr5/crtatmega32u4.o
__bss_end                                         /usr/lib/gcc/avr/11.2.0/avr5/libgcc.a(_clear_bss.o)
__bss_start                                       /usr/lib/gcc/avr/11.2.0/avr5/libgcc.a(_clear_bss.o)
__data_end                                        /usr/lib/gcc/avr/11.2.0/avr5/libgcc.a(_copy_data.o)
__data_load_start                                 /usr/lib/gcc/avr/11.2.0/avr5/libgcc.a(_copy_data.o)
__data_start                                      /usr/lib/gcc/avr/11.2.0/avr5/libgcc.a(_copy_data.o)
__divmodhi4                                       /usr/lib/gcc/avr/11.2.0/avr5/libgcc.a(_divmodhi4.o)
                                                  .build/obj_sofle_rev1_default/quantum/encoder.o
__do_clear_bss                                    /usr/lib/gcc/avr/11.2.0/avr5/libgcc.a(_clear_bss.o)
                                                  .build/obj_sofle_rev1_default/lib/lufa/LUFA/Drivers/USB/Core/USBTask.o
                                                  .build/obj_sofle_rev1_default/lib/lufa/LUFA/Drivers/USB/Core/DeviceStandardReq.o
                                                  .build/obj_sofle_rev1_default/lufa.o
                                                  .build/obj_sofle_rev1_default/common/avr/timer.o
                                                  .build/obj_sofle_rev1_default/common/avr/suspend.o
                                                  .build/obj_sofle_rev1_default/common/sync_timer.o
                                                  .build/obj_sofle_rev1_default/common/host.o
                                                  .build/obj_sofle_rev1_default/quantum/process_keycode/process_grave_esc.o
                                                  .build/obj_sofle_rev1_default/quantum/process_keycode/process_space_cadet.o
                                                  .build/obj_sofle_rev1_default/ssd1306_sh1106.o
                                                  .build/obj_sofle_rev1_default/quantum/encoder.o
                                                  .build/obj_sofle_rev1_default/quantum/split_common/transactions.o
                                                  .build/obj_sofle_rev1_default/quantum/split_common/transport.o
                                                  .build/obj_sofle_rev1_default/quantum/split_common/split_util.o
                                                  .build/obj_sofle_rev1_default/quantum/debounce/sym_defer_g.o
                                                  .build/obj_sofle_rev1_default/quantum/matrix.o
                                                  .build/obj_sofle_rev1_default/quantum/matrix_common.o
                                                  .build/obj_sofle_rev1_default/quantum/bootmagic/magic.o
                                                  .build/obj_sofle_rev1_default/quantum/logging/debug.o
                                                  .build/obj_sofle_rev1_default/quantum/keyboard.o
                                                  .build/obj_sofle_rev1_default/quantum/action_util.o
                                                  .build/obj_sofle_rev1_default/quantum/action_tapping.o
                                                  .build/obj_sofle_rev1_default/quantum/action_layer.o
                                                  .build/obj_sofle_rev1_default/quantum/action.o
__do_copy_data                                    /usr/lib/gcc/avr/11.2.0/avr5/libgcc.a(_copy_data.o)
                                                  .build/obj_sofle_rev1_default/usb_descriptor.o
                                                  .build/obj_sofle_rev1_default/lufa.o
                                                  .build/obj_sofle_rev1_default/ssd1306_sh1106.o
                                                  .build/obj_sofle_rev1_default/quantum/encoder.o
                                                  .build/obj_sofle_rev1_default/quantum/split_common/transactions.o
                                                  .build/obj_sofle_rev1_default/quantum/split_common/transport.o
                                                  .build/obj_sofle_rev1_default/quantum/split_common/split_util.o
                                                  .build/obj_sofle_rev1_default/quantum/matrix.o
                                                  .build/obj_sofle_rev1_default/quantum/keymap_common.o
                                                  .build/obj_sofle_rev1_default/quantum/action_util.o
                                                  .build/obj_sofle_rev1_default/quantum/action.o
__fixunssfsi                                      /usr/lib/gcc/avr/11.2.0/../../../../avr/lib/avr5/libm.a(fixunssfsi.o)
                                                  .build/obj_sofle_rev1_default/common/host.o
__fp_inf                                          /usr/lib/gcc/avr/11.2.0/../../../../avr/lib/avr5/libm.a(fp_inf.o)
                                                  /usr/lib/gcc/avr/11.2.0/../../../../avr/lib/avr5/libm.a(mulsf3x.o)
__fp_nan                                          /usr/lib/gcc/avr/11.2.0/../../../../avr/lib/avr5/libm.a(fp_nan.o)
                                                  /usr/lib/gcc/avr/11.2.0/../../../../avr/lib/avr5/libm.a(mulsf3x.o)
__fp_pscA                                         /usr/lib/gcc/avr/11.2.0/../../../../avr/lib/avr5/libm.a(fp_pscA.o)
                                                  /usr/lib/gcc/avr/11.2.0/../../../../avr/lib/avr5/libm.a(mulsf3x.o)
__fp_pscB                                         /usr/lib/gcc/avr/11.2.0/../../../../avr/lib/avr5/libm.a(fp_pscB.o)
                                                  /usr/lib/gcc/avr/11.2.0/../../../../avr/lib/avr5/libm.a(mulsf3x.o)
__fp_round                                        /usr/lib/gcc/avr/11.2.0/../../../../avr/lib/avr5/libm.a(fp_round.o)
                                                  /usr/lib/gcc/avr/11.2.0/../../../../avr/lib/avr5/libm.a(mulsf3.o)
__fp_split3                                       /usr/lib/gcc/avr/11.2.0/../../../../avr/lib/avr5/libm.a(fp_split3.o)
                                                  /usr/lib/gcc/avr/11.2.0/../../../../avr/lib/avr5/libm.a(mulsf3x.o)
__fp_splitA                                       /usr/lib/gcc/avr/11.2.0/../../../../avr/lib/avr5/libm.a(fp_split3.o)
                                                  /usr/lib/gcc/avr/11.2.0/../../../../avr/lib/avr5/libm.a(fixunssfsi.o)
__fp_szero                                        /usr/lib/gcc/avr/11.2.0/../../../../avr/lib/avr5/libm.a(fp_zero.o)
                                                  /usr/lib/gcc/avr/11.2.0/../../../../avr/lib/avr5/libm.a(mulsf3x.o)
__fp_zero                                         /usr/lib/gcc/avr/11.2.0/../../../../avr/lib/avr5/libm.a(fp_zero.o)
                                                  /usr/lib/gcc/avr/11.2.0/../../../../avr/lib/avr5/libm.a(fixunssfsi.o)
__heap_end                                        /usr/lib/gcc/avr/11.2.0/../../../../avr/lib/avr5/crtatmega32u4.o
__init                                            /usr/lib/gcc/avr/11.2.0/../../../../avr/lib/avr5/crtatmega32u4.o
__mulsf3                                          /usr/lib/gcc/avr/11.2.0/../../../../avr/lib/avr5/libm.a(mulsf3.o)
                                                  .build/obj_sofle_rev1_default/common/host.o
__mulsf3_pse                                      /usr/lib/gcc/avr/11.2.0/../../../../avr/lib/avr5/libm.a(mulsf3x.o)
__mulsf3x                                         /usr/lib/gcc/avr/11.2.0/../../../../avr/lib/avr5/libm.a(mulsf3x.o)
                                                  /usr/lib/gcc/avr/11.2.0/../../../../avr/lib/avr5/libm.a(mulsf3.o)
__popcounthi2                                     /usr/lib/gcc/avr/11.2.0/avr5/libgcc.a(_popcounthi2.o)
                                                  /usr/lib/gcc/avr/11.2.0/avr5/libgcc.a(_popcountsi2.o)
                                                  .build/obj_sofle_rev1_default/quantum/bitwise.o
__popcounthi2_tail                                /usr/lib/gcc/avr/11.2.0/avr5/libgcc.a(_popcounthi2.o)
                                                  /usr/lib/gcc/avr/11.2.0/avr5/libgcc.a(_popcountsi2.o)
__popcountqi2                                     /usr/lib/gcc/avr/11.2.0/avr5/libgcc.a(_popcountqi2.o)
                                                  /usr/lib/gcc/avr/11.2.0/avr5/libgcc.a(_popcounthi2.o)
__popcountsi2                                     /usr/lib/gcc/avr/11.2.0/avr5/libgcc.a(_popcountsi2.o)
                                                  .build/obj_sofle_rev1_default/quantum/bitwise.o
__stack                                           /usr/lib/gcc/avr/11.2.0/../../../../avr/lib/avr5/crtatmega32u4.o
__tablejump2__                                    /usr/lib/gcc/avr/11.2.0/avr5/libgcc.a(_tablejump2.o)
                                                  .build/obj_sofle_rev1_default/lib/lufa/LUFA/Drivers/USB/Core/DeviceStandardReq.o
                                                  .build/obj_sofle_rev1_default/quantum/process_keycode/process_magic.o
                                                  .build/obj_sofle_rev1_default/quantum/action.o
                                                  .build/obj_sofle_rev1_default/keyboards/sofle/keymaps/default/keymap.o
__udivmodhi4                                      /usr/lib/gcc/avr/11.2.0/avr5/libgcc.a(_udivmodhi4.o)
                                                  /usr/lib/gcc/avr/11.2.0/avr5/libgcc.a(_divmodhi4.o)
                                                  .build/obj_sofle_rev1_default/i2c_master.a(i2c_master.o)
                                                  .build/obj_sofle_rev1_default/ssd1306_sh1106.o
__udivmodqi4                                      /usr/lib/gcc/avr/11.2.0/avr5/libgcc.a(_udivmodqi4.o)
                                                  .build/obj_sofle_rev1_default/lufa.o
                                                  .build/obj_sofle_rev1_default/ssd1306_sh1106.o
__vector_1                                        /usr/lib/gcc/avr/11.2.0/../../../../avr/lib/avr5/crtatmega32u4.o
__vector_10                                       .build/obj_sofle_rev1_default/lib/lufa/LUFA/Drivers/USB/Core/AVR8/USBInterrupt_AVR8.o
                                                  /usr/lib/gcc/avr/11.2.0/../../../../avr/lib/avr5/crtatmega32u4.o
__vector_11                                       .build/obj_sofle_rev1_default/lib/lufa/LUFA/Drivers/USB/Core/AVR8/USBInterrupt_AVR8.o
                                                  /usr/lib/gcc/avr/11.2.0/../../../../avr/lib/avr5/crtatmega32u4.o
__vector_12                                       .build/obj_sofle_rev1_default/common/avr/suspend.o
                                                  /usr/lib/gcc/avr/11.2.0/../../../../avr/lib/avr5/crtatmega32u4.o
__vector_13                                       /usr/lib/gcc/avr/11.2.0/../../../../avr/lib/avr5/crtatmega32u4.o
__vector_14                                       /usr/lib/gcc/avr/11.2.0/../../../../avr/lib/avr5/crtatmega32u4.o
__vector_15                                       /usr/lib/gcc/avr/11.2.0/../../../../avr/lib/avr5/crtatmega32u4.o
__vector_16                                       /usr/lib/gcc/avr/11.2.0/../../../../avr/lib/avr5/crtatmega32u4.o
__vector_17                                       /usr/lib/gcc/avr/11.2.0/../../../../avr/lib/avr5/crtatmega32u4.o
__vector_18                                       /usr/lib/gcc/avr/11.2.0/../../../../avr/lib/avr5/crtatmega32u4.o
__vector_19                                       /usr/lib/gcc/avr/11.2.0/../../../../avr/lib/avr5/crtatmega32u4.o
__vector_2                                        /usr/lib/gcc/avr/11.2.0/../../../../avr/lib/avr5/crtatmega32u4.o
__vector_20                                       /usr/lib/gcc/avr/11.2.0/../../../../avr/lib/avr5/crtatmega32u4.o
__vector_21                                       .build/obj_sofle_rev1_default/common/avr/timer.o
                                                  /usr/lib/gcc/avr/11.2.0/../../../../avr/lib/avr5/crtatmega32u4.o
__vector_22                                       /usr/lib/gcc/avr/11.2.0/../../../../avr/lib/avr5/crtatmega32u4.o
__vector_23                                       /usr/lib/gcc/avr/11.2.0/../../../../avr/lib/avr5/crtatmega32u4.o
__vector_24                                       /usr/lib/gcc/avr/11.2.0/../../../../avr/lib/avr5/crtatmega32u4.o
__vector_25                                       /usr/lib/gcc/avr/11.2.0/../../../../avr/lib/avr5/crtatmega32u4.o
__vector_26                                       /usr/lib/gcc/avr/11.2.0/../../../../avr/lib/avr5/crtatmega32u4.o
__vector_27                                       /usr/lib/gcc/avr/11.2.0/../../../../avr/lib/avr5/crtatmega32u4.o
__vector_28                                       /usr/lib/gcc/avr/11.2.0/../../../../avr/lib/avr5/crtatmega32u4.o
__vector_29                                       /usr/lib/gcc/avr/11.2.0/../../../../avr/lib/avr5/crtatmega32u4.o
__vector_3                                        .build/obj_sofle_rev1_default/serial.a(serial.o)
                                                  /usr/lib/gcc/avr/11.2.0/../../../../avr/lib/avr5/crtatmega32u4.o
__vector_30                                       /usr/lib/gcc/avr/11.2.0/../../../../avr/lib/avr5/crtatmega32u4.o
__vector_31                                       /usr/lib/gcc/avr/11.2.0/../../../../avr/lib/avr5/crtatmega32u4.o
__vector_32                                       /usr/lib/gcc/avr/11.2.0/../../../../avr/lib/avr5/crtatmega32u4.o
__vector_33                                       /usr/lib/gcc/avr/11.2.0/../../../../avr/lib/avr5/crtatmega32u4.o
__vector_34                                       /usr/lib/gcc/avr/11.2.0/../../../../avr/lib/avr5/crtatmega32u4.o
__vector_35                                       /usr/lib/gcc/avr/11.2.0/../../../../avr/lib/avr5/crtatmega32u4.o
__vector_36                                       /usr/lib/gcc/avr/11.2.0/../../../../avr/lib/avr5/crtatmega32u4.o
__vector_37                                       /usr/lib/gcc/avr/11.2.0/../../../../avr/lib/avr5/crtatmega32u4.o
__vector_38                                       /usr/lib/gcc/avr/11.2.0/../../../../avr/lib/avr5/crtatmega32u4.o
__vector_39                                       /usr/lib/gcc/avr/11.2.0/../../../../avr/lib/avr5/crtatmega32u4.o
__vector_4                                        /usr/lib/gcc/avr/11.2.0/../../../../avr/lib/avr5/crtatmega32u4.o
__vector_40                                       /usr/lib/gcc/avr/11.2.0/../../../../avr/lib/avr5/crtatmega32u4.o
__vector_41                                       /usr/lib/gcc/avr/11.2.0/../../../../avr/lib/avr5/crtatmega32u4.o
__vector_42                                       /usr/lib/gcc/avr/11.2.0/../../../../avr/lib/avr5/crtatmega32u4.o
__vector_5                                        /usr/lib/gcc/avr/11.2.0/../../../../avr/lib/avr5/crtatmega32u4.o
__vector_6                                        /usr/lib/gcc/avr/11.2.0/../../../../avr/lib/avr5/crtatmega32u4.o
__vector_7                                        /usr/lib/gcc/avr/11.2.0/../../../../avr/lib/avr5/crtatmega32u4.o
__vector_8                                        /usr/lib/gcc/avr/11.2.0/../../../../avr/lib/avr5/crtatmega32u4.o
__vector_9                                        /usr/lib/gcc/avr/11.2.0/../../../../avr/lib/avr5/crtatmega32u4.o
__vector_default                                  /usr/lib/gcc/avr/11.2.0/../../../../avr/lib/avr5/crtatmega32u4.o
__vectors                                         /usr/lib/gcc/avr/11.2.0/../../../../avr/lib/avr5/crtatmega32u4.o
__xprintf                                         .build/obj_sofle_rev1_default/common/avr/xprintf.o
                                                  .build/obj_sofle_rev1_default/common/host.o
                                                  .build/obj_sofle_rev1_default/quantum/split_common/transactions.o
                                                  .build/obj_sofle_rev1_default/quantum/matrix_common.o
                                                  .build/obj_sofle_rev1_default/quantum/keyboard.o
                                                  .build/obj_sofle_rev1_default/quantum/action_util.o
_div                                              /usr/lib/gcc/avr/11.2.0/avr5/libgcc.a(_divmodhi4.o)
_exit                                             /usr/lib/gcc/avr/11.2.0/avr5/libgcc.a(_exit.o)
action_exec                                       .build/obj_sofle_rev1_default/quantum/action.o
                                                  .build/obj_sofle_rev1_default/quantum/keyboard.o
action_for_key                                    .build/obj_sofle_rev1_default/quantum/keymap_common.o
                                                  .build/obj_sofle_rev1_default/quantum/action_layer.o
action_for_keycode                                .build/obj_sofle_rev1_default/quantum/keymap_common.o
action_function                                   .build/obj_sofle_rev1_default/quantum/keymap_common.o
action_get_macro                                  .build/obj_sofle_rev1_default/quantum/keymap_common.o
action_tapping_process                            .build/obj_sofle_rev1_default/quantum/action_tapping.o
                                                  .build/obj_sofle_rev1_default/quantum/action.o
add_key                                           .build/obj_sofle_rev1_default/quantum/action_util.o
                                                  .build/obj_sofle_rev1_default/quantum/process_keycode/process_grave_esc.o
                                                  .build/obj_sofle_rev1_default/quantum/action.o
add_key_byte                                      .build/obj_sofle_rev1_default/common/report.o
add_key_to_report                                 .build/obj_sofle_rev1_default/common/report.o
                                                  .build/obj_sofle_rev1_default/quantum/action_util.o
add_macro_mods                                    .build/obj_sofle_rev1_default/quantum/action_util.o
add_mods                                          .build/obj_sofle_rev1_default/quantum/action_util.o
                                                  .build/obj_sofle_rev1_default/quantum/action.o
add_oneshot_mods                                  .build/obj_sofle_rev1_default/quantum/action_util.o
add_weak_mods                                     .build/obj_sofle_rev1_default/quantum/action_util.o
                                                  .build/obj_sofle_rev1_default/quantum/action.o
api_send_unicode                                  .build/obj_sofle_rev1_default/quantum/quantum.o
ascii_to_altgr_lut                                .build/obj_sofle_rev1_default/quantum/send_string.o
ascii_to_dead_lut                                 .build/obj_sofle_rev1_default/quantum/send_string.o
ascii_to_keycode_lut                              .build/obj_sofle_rev1_default/quantum/send_string.o
ascii_to_shift_lut                                .build/obj_sofle_rev1_default/quantum/send_string.o
biton                                             .build/obj_sofle_rev1_default/quantum/bitwise.o
biton16                                           .build/obj_sofle_rev1_default/quantum/bitwise.o
biton32                                           .build/obj_sofle_rev1_default/quantum/bitwise.o
bitpop                                            .build/obj_sofle_rev1_default/quantum/bitwise.o
                                                  .build/obj_sofle_rev1_default/quantum/matrix_common.o
                                                  .build/obj_sofle_rev1_default/quantum/action_util.o
bitpop16                                          .build/obj_sofle_rev1_default/quantum/bitwise.o
bitpop32                                          .build/obj_sofle_rev1_default/quantum/bitwise.o
bitrev                                            .build/obj_sofle_rev1_default/quantum/bitwise.o
                                                  .build/obj_sofle_rev1_default/quantum/matrix_common.o
bitrev16                                          .build/obj_sofle_rev1_default/quantum/bitwise.o
bitrev32                                          .build/obj_sofle_rev1_default/quantum/bitwise.o
bootloader_jump                                   .build/obj_sofle_rev1_default/common/avr/bootloader.o
                                                  .build/obj_sofle_rev1_default/quantum/quantum.o
bootloader_jump_after_watchdog_reset              .build/obj_sofle_rev1_default/common/avr/bootloader.o
bootmagic                                         .build/obj_sofle_rev1_default/quantum/bootmagic/magic.o
clear_keyboard                                    .build/obj_sofle_rev1_default/quantum/action.o
                                                  .build/obj_sofle_rev1_default/lufa.o
                                                  .build/obj_sofle_rev1_default/common/avr/suspend.o
                                                  .build/obj_sofle_rev1_default/quantum/process_keycode/process_magic.o
                                                  .build/obj_sofle_rev1_default/quantum/action_tapping.o
                                                  .build/obj_sofle_rev1_default/quantum/quantum.o
clear_keyboard_but_mods                           .build/obj_sofle_rev1_default/quantum/action.o
clear_keyboard_but_mods_and_keys                  .build/obj_sofle_rev1_default/quantum/action.o
                                                  .build/obj_sofle_rev1_default/quantum/action_layer.o
clear_keys                                        .build/obj_sofle_rev1_default/quantum/action_util.o
                                                  .build/obj_sofle_rev1_default/quantum/action.o
clear_keys_from_report                            .build/obj_sofle_rev1_default/common/report.o
                                                  .build/obj_sofle_rev1_default/quantum/action_util.o
clear_macro_mods                                  .build/obj_sofle_rev1_default/quantum/action_util.o
                                                  .build/obj_sofle_rev1_default/quantum/action.o
clear_mods                                        .build/obj_sofle_rev1_default/quantum/action_util.o
                                                  .build/obj_sofle_rev1_default/quantum/action.o
clear_oneshot_layer_state                         .build/obj_sofle_rev1_default/quantum/action_util.o
                                                  .build/obj_sofle_rev1_default/quantum/action.o
clear_oneshot_locked_mods                         .build/obj_sofle_rev1_default/quantum/action_util.o
clear_oneshot_mods                                .build/obj_sofle_rev1_default/quantum/action_util.o
                                                  .build/obj_sofle_rev1_default/quantum/action.o
clear_oneshot_swaphands                           .build/obj_sofle_rev1_default/quantum/action_util.o
clear_weak_mods                                   .build/obj_sofle_rev1_default/quantum/action_util.o
                                                  .build/obj_sofle_rev1_default/quantum/action.o
crc8                                              .build/obj_sofle_rev1_default/crc.o
                                                  .build/obj_sofle_rev1_default/quantum/split_common/transactions.o
crc_init                                          .build/obj_sofle_rev1_default/crc.o
                                                  .build/obj_sofle_rev1_default/quantum/keyboard.o
crot                                              .build/obj_sofle_rev1_default/ssd1306_sh1106.o
debounce                                          .build/obj_sofle_rev1_default/quantum/debounce/sym_defer_g.o
                                                  .build/obj_sofle_rev1_default/quantum/matrix.o
                                                  .build/obj_sofle_rev1_default/quantum/matrix_common.o
debounce_active                                   .build/obj_sofle_rev1_default/quantum/debounce/sym_defer_g.o
                                                  .build/obj_sofle_rev1_default/quantum/matrix_common.o
debounce_free                                     .build/obj_sofle_rev1_default/quantum/debounce/sym_defer_g.o
debounce_init                                     .build/obj_sofle_rev1_default/quantum/debounce/sym_defer_g.o
                                                  .build/obj_sofle_rev1_default/quantum/matrix.o
                                                  .build/obj_sofle_rev1_default/quantum/matrix_common.o
debug_action                                      .build/obj_sofle_rev1_default/quantum/action.o
debug_config                                      .build/obj_sofle_rev1_default/quantum/logging/debug.o
                                                  .build/obj_sofle_rev1_default/common/host.o
                                                  .build/obj_sofle_rev1_default/quantum/split_common/transactions.o
                                                  .build/obj_sofle_rev1_default/quantum/split_common/split_util.o
                                                  .build/obj_sofle_rev1_default/quantum/bootmagic/magic.o
                                                  .build/obj_sofle_rev1_default/quantum/keyboard.o
                                                  .build/obj_sofle_rev1_default/quantum/action_util.o
                                                  .build/obj_sofle_rev1_default/quantum/quantum.o
debug_event                                       .build/obj_sofle_rev1_default/quantum/action.o
                                                  .build/obj_sofle_rev1_default/quantum/action_tapping.o
debug_record                                      .build/obj_sofle_rev1_default/quantum/action.o
                                                  .build/obj_sofle_rev1_default/quantum/action_tapping.o
default_layer_and                                 .build/obj_sofle_rev1_default/quantum/action_layer.o
                                                  .build/obj_sofle_rev1_default/quantum/action.o
default_layer_debug                               .build/obj_sofle_rev1_default/quantum/action_layer.o
                                                  .build/obj_sofle_rev1_default/quantum/action.o
default_layer_or                                  .build/obj_sofle_rev1_default/quantum/action_layer.o
                                                  .build/obj_sofle_rev1_default/quantum/action.o
default_layer_set                                 .build/obj_sofle_rev1_default/quantum/action_layer.o
                                                  .build/obj_sofle_rev1_default/quantum/bootmagic/magic.o
                                                  .build/obj_sofle_rev1_default/quantum/action.o
                                                  .build/obj_sofle_rev1_default/quantum/quantum.o
default_layer_state                               .build/obj_sofle_rev1_default/quantum/action_layer.o
                                                  .build/obj_sofle_rev1_default/quantum/eeconfig.o
default_layer_state_set_kb                        .build/obj_sofle_rev1_default/quantum/action_layer.o
default_layer_state_set_user                      .build/obj_sofle_rev1_default/quantum/action_layer.o
default_layer_xor                                 .build/obj_sofle_rev1_default/quantum/action_layer.o
                                                  .build/obj_sofle_rev1_default/quantum/action.o
del_key                                           .build/obj_sofle_rev1_default/quantum/action_util.o
                                                  .build/obj_sofle_rev1_default/quantum/process_keycode/process_grave_esc.o
                                                  .build/obj_sofle_rev1_default/quantum/action.o
del_key_byte                                      .build/obj_sofle_rev1_default/common/report.o
del_key_from_report                               .build/obj_sofle_rev1_default/common/report.o
                                                  .build/obj_sofle_rev1_default/quantum/action_util.o
del_macro_mods                                    .build/obj_sofle_rev1_default/quantum/action_util.o
del_mods                                          .build/obj_sofle_rev1_default/quantum/action_util.o
                                                  .build/obj_sofle_rev1_default/quantum/action.o
del_oneshot_mods                                  .build/obj_sofle_rev1_default/quantum/action_util.o
del_weak_mods                                     .build/obj_sofle_rev1_default/quantum/action_util.o
                                                  .build/obj_sofle_rev1_default/quantum/action.o
disable_action_cache                              .build/obj_sofle_rev1_default/quantum/action.o
                                                  .build/obj_sofle_rev1_default/quantum/action_layer.o
                                                  .build/obj_sofle_rev1_default/quantum/quantum.o
disable_jtag                                      .build/obj_sofle_rev1_default/quantum/keyboard.o
dummy                                             .build/obj_sofle_rev1_default/quantum/split_common/transactions.o
eeconfig_disable                                  .build/obj_sofle_rev1_default/quantum/eeconfig.o
eeconfig_enable                                   .build/obj_sofle_rev1_default/quantum/eeconfig.o
eeconfig_init                                     .build/obj_sofle_rev1_default/quantum/eeconfig.o
                                                  .build/obj_sofle_rev1_default/quantum/bootmagic/magic.o
                                                  .build/obj_sofle_rev1_default/quantum/quantum.o
eeconfig_init_kb                                  .build/obj_sofle_rev1_default/quantum/eeconfig.o
eeconfig_init_quantum                             .build/obj_sofle_rev1_default/quantum/eeconfig.o
eeconfig_init_user                                .build/obj_sofle_rev1_default/quantum/eeconfig.o
eeconfig_is_disabled                              .build/obj_sofle_rev1_default/quantum/eeconfig.o
eeconfig_is_enabled                               .build/obj_sofle_rev1_default/quantum/eeconfig.o
                                                  .build/obj_sofle_rev1_default/quantum/bootmagic/magic.o
eeconfig_read_audio                               .build/obj_sofle_rev1_default/quantum/eeconfig.o
eeconfig_read_debug                               .build/obj_sofle_rev1_default/quantum/eeconfig.o
                                                  .build/obj_sofle_rev1_default/quantum/bootmagic/magic.o
eeconfig_read_default_layer                       .build/obj_sofle_rev1_default/quantum/eeconfig.o
                                                  .build/obj_sofle_rev1_default/quantum/bootmagic/magic.o
eeconfig_read_handedness                          .build/obj_sofle_rev1_default/quantum/eeconfig.o
eeconfig_read_haptic                              .build/obj_sofle_rev1_default/quantum/eeconfig.o
eeconfig_read_kb                                  .build/obj_sofle_rev1_default/quantum/eeconfig.o
eeconfig_read_keymap                              .build/obj_sofle_rev1_default/quantum/eeconfig.o
                                                  .build/obj_sofle_rev1_default/quantum/process_keycode/process_magic.o
                                                  .build/obj_sofle_rev1_default/quantum/bootmagic/magic.o
eeconfig_read_user                                .build/obj_sofle_rev1_default/quantum/eeconfig.o
eeconfig_update_audio                             .build/obj_sofle_rev1_default/quantum/eeconfig.o
eeconfig_update_debug                             .build/obj_sofle_rev1_default/quantum/eeconfig.o
eeconfig_update_default_layer                     .build/obj_sofle_rev1_default/quantum/eeconfig.o
                                                  .build/obj_sofle_rev1_default/quantum/quantum.o
eeconfig_update_handedness                        .build/obj_sofle_rev1_default/quantum/eeconfig.o
                                                  .build/obj_sofle_rev1_default/quantum/process_keycode/process_magic.o
eeconfig_update_haptic                            .build/obj_sofle_rev1_default/quantum/eeconfig.o
eeconfig_update_kb                                .build/obj_sofle_rev1_default/quantum/eeconfig.o
eeconfig_update_keymap                            .build/obj_sofle_rev1_default/quantum/eeconfig.o
                                                  .build/obj_sofle_rev1_default/quantum/process_keycode/process_magic.o
                                                  .build/obj_sofle_rev1_default/quantum/action_util.o
eeconfig_update_user                              .build/obj_sofle_rev1_default/quantum/eeconfig.o
eeprom_read_block                                 /usr/lib/gcc/avr/11.2.0/../../../../avr/lib/avr5/libatmega32u4.a(eerd_block.o)
eeprom_read_blraw                                 /usr/lib/gcc/avr/11.2.0/../../../../avr/lib/avr5/libatmega32u4.a(eerd_block.o)
                                                  /usr/lib/gcc/avr/11.2.0/../../../../avr/lib/avr5/libatmega32u4.a(eerd_word.o)
                                                  /usr/lib/gcc/avr/11.2.0/../../../../avr/lib/avr5/libatmega32u4.a(eerd_dword.o)
eeprom_read_byte                                  /usr/lib/gcc/avr/11.2.0/../../../../avr/lib/avr5/libatmega32u4.a(eerd_byte.o)
                                                  .build/obj_sofle_rev1_default/lib/lufa/LUFA/Drivers/USB/Core/AVR8/EndpointStream_AVR8.o
                                                  .build/obj_sofle_rev1_default/quantum/eeconfig.o
eeprom_read_dword                                 /usr/lib/gcc/avr/11.2.0/../../../../avr/lib/avr5/libatmega32u4.a(eerd_dword.o)
                                                  .build/obj_sofle_rev1_default/quantum/eeconfig.o
eeprom_read_float                                 /usr/lib/gcc/avr/11.2.0/../../../../avr/lib/avr5/libatmega32u4.a(eerd_dword.o)
eeprom_read_word                                  /usr/lib/gcc/avr/11.2.0/../../../../avr/lib/avr5/libatmega32u4.a(eerd_word.o)
                                                  .build/obj_sofle_rev1_default/quantum/eeconfig.o
eeprom_update_byte                                /usr/lib/gcc/avr/11.2.0/../../../../avr/lib/avr5/libatmega32u4.a(eeupd_byte.o)
                                                  /usr/lib/gcc/avr/11.2.0/../../../../avr/lib/avr5/libatmega32u4.a(eeupd_word.o)
                                                  /usr/lib/gcc/avr/11.2.0/../../../../avr/lib/avr5/libatmega32u4.a(eeupd_dword.o)
                                                  .build/obj_sofle_rev1_default/lib/lufa/LUFA/Drivers/USB/Core/AVR8/EndpointStream_AVR8.o
                                                  .build/obj_sofle_rev1_default/quantum/eeconfig.o
eeprom_update_dword                               /usr/lib/gcc/avr/11.2.0/../../../../avr/lib/avr5/libatmega32u4.a(eeupd_dword.o)
                                                  .build/obj_sofle_rev1_default/quantum/eeconfig.o
eeprom_update_float                               /usr/lib/gcc/avr/11.2.0/../../../../avr/lib/avr5/libatmega32u4.a(eeupd_dword.o)
eeprom_update_r18                                 /usr/lib/gcc/avr/11.2.0/../../../../avr/lib/avr5/libatmega32u4.a(eeupd_byte.o)
                                                  /usr/lib/gcc/avr/11.2.0/../../../../avr/lib/avr5/libatmega32u4.a(eeupd_word.o)
                                                  /usr/lib/gcc/avr/11.2.0/../../../../avr/lib/avr5/libatmega32u4.a(eeupd_dword.o)
eeprom_update_word                                /usr/lib/gcc/avr/11.2.0/../../../../avr/lib/avr5/libatmega32u4.a(eeupd_word.o)
                                                  .build/obj_sofle_rev1_default/quantum/eeconfig.o
encoder_init                                      .build/obj_sofle_rev1_default/quantum/encoder.o
                                                  .build/obj_sofle_rev1_default/quantum/keyboard.o
encoder_read                                      .build/obj_sofle_rev1_default/quantum/encoder.o
                                                  .build/obj_sofle_rev1_default/quantum/keyboard.o
encoder_state_raw                                 .build/obj_sofle_rev1_default/quantum/encoder.o
                                                  .build/obj_sofle_rev1_default/quantum/split_common/transactions.o
encoder_update_kb                                 .build/obj_sofle_rev1_default/quantum/encoder.o
encoder_update_raw                                .build/obj_sofle_rev1_default/quantum/encoder.o
                                                  .build/obj_sofle_rev1_default/quantum/split_common/transactions.o
encoder_update_user                               .build/obj_sofle_rev1_default/keyboards/sofle/keymaps/default/keymap.o
exit                                              /usr/lib/gcc/avr/11.2.0/avr5/libgcc.a(_exit.o)
                                                  /usr/lib/gcc/avr/11.2.0/../../../../avr/lib/avr5/crtatmega32u4.o
extract_mod_bits                                  .build/obj_sofle_rev1_default/quantum/quantum.o
fn_actions                                        .build/obj_sofle_rev1_default/quantum/keymap_common.o
get_event_keycode                                 .build/obj_sofle_rev1_default/quantum/quantum.o
get_first_key                                     .build/obj_sofle_rev1_default/common/report.o
get_macro_mods                                    .build/obj_sofle_rev1_default/quantum/action_util.o
get_mods                                          .build/obj_sofle_rev1_default/quantum/action_util.o
                                                  .build/obj_sofle_rev1_default/quantum/process_keycode/process_grave_esc.o
get_oneshot_layer                                 .build/obj_sofle_rev1_default/quantum/action_util.o
                                                  .build/obj_sofle_rev1_default/quantum/action.o
get_oneshot_layer_state                           .build/obj_sofle_rev1_default/quantum/action_util.o
                                                  .build/obj_sofle_rev1_default/quantum/action.o
get_oneshot_locked_mods                           .build/obj_sofle_rev1_default/quantum/action_util.o
get_oneshot_mods                                  .build/obj_sofle_rev1_default/quantum/action_util.o
                                                  .build/obj_sofle_rev1_default/quantum/action.o
get_record_keycode                                .build/obj_sofle_rev1_default/quantum/quantum.o
get_tapping_term                                  .build/obj_sofle_rev1_default/quantum/action_tapping.o
get_usb_descriptor                                .build/obj_sofle_rev1_default/usb_descriptor.o
                                                  .build/obj_sofle_rev1_default/lufa.o
get_weak_mods                                     .build/obj_sofle_rev1_default/quantum/action_util.o
hand_swap_config                                  .build/obj_sofle_rev1_default/keyboards/sofle/sofle.o
                                                  .build/obj_sofle_rev1_default/quantum/action.o
has_anykey                                        .build/obj_sofle_rev1_default/common/report.o
                                                  .build/obj_sofle_rev1_default/quantum/action_util.o
has_anymod                                        .build/obj_sofle_rev1_default/quantum/action_util.o
has_oneshot_mods_timed_out                        .build/obj_sofle_rev1_default/quantum/action_util.o
host_consumer_send                                .build/obj_sofle_rev1_default/common/host.o
                                                  .build/obj_sofle_rev1_default/quantum/action.o
host_digitizer_send                               .build/obj_sofle_rev1_default/common/host.o
host_get_driver                                   .build/obj_sofle_rev1_default/common/host.o
host_keyboard_led_state                           .build/obj_sofle_rev1_default/common/host.o
host_keyboard_leds                                .build/obj_sofle_rev1_default/common/host.o
                                                  .build/obj_sofle_rev1_default/common/avr/suspend.o
                                                  .build/obj_sofle_rev1_default/quantum/keyboard.o
                                                  .build/obj_sofle_rev1_default/quantum/action.o
host_keyboard_send                                .build/obj_sofle_rev1_default/common/host.o
                                                  .build/obj_sofle_rev1_default/quantum/action_util.o
host_last_consumer_report                         .build/obj_sofle_rev1_default/common/host.o
host_last_system_report                           .build/obj_sofle_rev1_default/common/host.o
host_mouse_send                                   .build/obj_sofle_rev1_default/common/host.o
host_set_driver                                   .build/obj_sofle_rev1_default/common/host.o
                                                  .build/obj_sofle_rev1_default/lufa.o
host_system_send                                  .build/obj_sofle_rev1_default/common/host.o
                                                  .build/obj_sofle_rev1_default/quantum/action.o
housekeeping_task                                 .build/obj_sofle_rev1_default/quantum/keyboard.o
                                                  .build/obj_sofle_rev1_default/quantum/main.o
housekeeping_task_kb                              .build/obj_sofle_rev1_default/quantum/keyboard.o
housekeeping_task_user                            .build/obj_sofle_rev1_default/quantum/keyboard.o
i2c_init                                          .build/obj_sofle_rev1_default/i2c_master.a(i2c_master.o)
                                                  .build/obj_sofle_rev1_default/ssd1306_sh1106.o
i2c_readReg                                       .build/obj_sofle_rev1_default/i2c_master.a(i2c_master.o)
i2c_read_ack                                      .build/obj_sofle_rev1_default/i2c_master.a(i2c_master.o)
i2c_read_nack                                     .build/obj_sofle_rev1_default/i2c_master.a(i2c_master.o)
i2c_receive                                       .build/obj_sofle_rev1_default/i2c_master.a(i2c_master.o)
i2c_start                                         .build/obj_sofle_rev1_default/i2c_master.a(i2c_master.o)
                                                  .build/obj_sofle_rev1_default/ssd1306_sh1106.o
i2c_stop                                          .build/obj_sofle_rev1_default/i2c_master.a(i2c_master.o)
                                                  .build/obj_sofle_rev1_default/ssd1306_sh1106.o
i2c_transmit                                      .build/obj_sofle_rev1_default/i2c_master.a(i2c_master.o)
                                                  .build/obj_sofle_rev1_default/ssd1306_sh1106.o
i2c_write                                         .build/obj_sofle_rev1_default/i2c_master.a(i2c_master.o)
                                                  .build/obj_sofle_rev1_default/ssd1306_sh1106.o
i2c_writeReg                                      .build/obj_sofle_rev1_default/i2c_master.a(i2c_master.o)
                                                  .build/obj_sofle_rev1_default/ssd1306_sh1106.o
isLeftHand                                        .build/obj_sofle_rev1_default/quantum/split_common/split_util.o
                                                  .build/obj_sofle_rev1_default/quantum/encoder.o
                                                  .build/obj_sofle_rev1_default/quantum/matrix.o
is_key_pressed                                    .build/obj_sofle_rev1_default/common/report.o
                                                  .build/obj_sofle_rev1_default/quantum/action.o
is_keyboard_left                                  .build/obj_sofle_rev1_default/quantum/split_common/split_util.o
                                                  .build/obj_sofle_rev1_default/keyboards/sofle/keymaps/default/keymap.o
is_keyboard_master                                .build/obj_sofle_rev1_default/quantum/split_common/split_util.o
                                                  .build/obj_sofle_rev1_default/common/sync_timer.o
                                                  .build/obj_sofle_rev1_default/common/host.o
                                                  .build/obj_sofle_rev1_default/quantum/matrix.o
                                                  .build/obj_sofle_rev1_default/quantum/keyboard.o
is_oled_on                                        .build/obj_sofle_rev1_default/ssd1306_sh1106.o
is_oled_scrolling                                 .build/obj_sofle_rev1_default/ssd1306_sh1106.o
is_oneshot_enabled                                .build/obj_sofle_rev1_default/quantum/action_util.o
is_oneshot_layer_active                           .build/obj_sofle_rev1_default/quantum/action_util.o
                                                  .build/obj_sofle_rev1_default/quantum/action.o
is_tap_action                                     .build/obj_sofle_rev1_default/quantum/action.o
is_tap_key                                        .build/obj_sofle_rev1_default/quantum/action.o
is_tap_record                                     .build/obj_sofle_rev1_default/quantum/action.o
                                                  .build/obj_sofle_rev1_default/quantum/action_tapping.o
is_transport_connected                            .build/obj_sofle_rev1_default/quantum/split_common/split_util.o
                                                  .build/obj_sofle_rev1_default/quantum/split_common/transactions.o
keyboard_idle                                     .build/obj_sofle_rev1_default/lufa.o
keyboard_init                                     .build/obj_sofle_rev1_default/quantum/keyboard.o
                                                  .build/obj_sofle_rev1_default/lufa.o
keyboard_post_init_kb                             .build/obj_sofle_rev1_default/quantum/keyboard.o
keyboard_post_init_user                           .build/obj_sofle_rev1_default/quantum/keyboard.o
keyboard_pre_init_kb                              .build/obj_sofle_rev1_default/quantum/keyboard.o
keyboard_pre_init_user                            .build/obj_sofle_rev1_default/quantum/keyboard.o
keyboard_protocol                                 .build/obj_sofle_rev1_default/lufa.o
keyboard_report                                   .build/obj_sofle_rev1_default/quantum/action_util.o
                                                  .build/obj_sofle_rev1_default/quantum/action.o
keyboard_set_leds                                 .build/obj_sofle_rev1_default/quantum/keyboard.o
keyboard_setup                                    .build/obj_sofle_rev1_default/quantum/keyboard.o
                                                  .build/obj_sofle_rev1_default/lufa.o
keyboard_task                                     .build/obj_sofle_rev1_default/quantum/keyboard.o
                                                  .build/obj_sofle_rev1_default/lufa.o
keycode_config                                    .build/obj_sofle_rev1_default/quantum/keycode_config.o
                                                  .build/obj_sofle_rev1_default/quantum/keymap_common.o
keymap_config                                     .build/obj_sofle_rev1_default/quantum/bootmagic/magic.o
                                                  .build/obj_sofle_rev1_default/quantum/process_keycode/process_magic.o
                                                  .build/obj_sofle_rev1_default/quantum/keycode_config.o
                                                  .build/obj_sofle_rev1_default/quantum/action_util.o
                                                  .build/obj_sofle_rev1_default/keyboards/sofle/keymaps/default/keymap.o
keymap_function_id_to_action                      .build/obj_sofle_rev1_default/quantum/keymap_common.o
keymap_key_to_keycode                             .build/obj_sofle_rev1_default/quantum/keymap_common.o
                                                  .build/obj_sofle_rev1_default/quantum/quantum.o
keymaps                                           .build/obj_sofle_rev1_default/keyboards/sofle/keymaps/default/keymap.o
                                                  .build/obj_sofle_rev1_default/quantum/keymap_common.o
last_encoder_activity_elapsed                     .build/obj_sofle_rev1_default/quantum/keyboard.o
last_encoder_activity_time                        .build/obj_sofle_rev1_default/quantum/keyboard.o
last_encoder_activity_trigger                     .build/obj_sofle_rev1_default/quantum/keyboard.o
                                                  .build/obj_sofle_rev1_default/quantum/encoder.o
last_input_activity_elapsed                       .build/obj_sofle_rev1_default/quantum/keyboard.o
last_input_activity_time                          .build/obj_sofle_rev1_default/quantum/keyboard.o
last_matrix_activity_elapsed                      .build/obj_sofle_rev1_default/quantum/keyboard.o
last_matrix_activity_time                         .build/obj_sofle_rev1_default/quantum/keyboard.o
last_matrix_activity_trigger                      .build/obj_sofle_rev1_default/quantum/keyboard.o
layer_and                                         .build/obj_sofle_rev1_default/quantum/action_layer.o
                                                  .build/obj_sofle_rev1_default/quantum/action.o
layer_clear                                       .build/obj_sofle_rev1_default/quantum/action_layer.o
                                                  .build/obj_sofle_rev1_default/quantum/action.o
layer_debug                                       .build/obj_sofle_rev1_default/quantum/action_layer.o
                                                  .build/obj_sofle_rev1_default/quantum/action.o
layer_invert                                      .build/obj_sofle_rev1_default/quantum/action_layer.o
                                                  .build/obj_sofle_rev1_default/quantum/action.o
layer_move                                        .build/obj_sofle_rev1_default/quantum/action_layer.o
                                                  .build/obj_sofle_rev1_default/quantum/action.o
layer_off                                         .build/obj_sofle_rev1_default/quantum/action_layer.o
                                                  .build/obj_sofle_rev1_default/quantum/action_util.o
                                                  .build/obj_sofle_rev1_default/quantum/action.o
                                                  .build/obj_sofle_rev1_default/keyboards/sofle/keymaps/default/keymap.o
layer_on                                          .build/obj_sofle_rev1_default/quantum/action_layer.o
                                                  .build/obj_sofle_rev1_default/quantum/action_util.o
                                                  .build/obj_sofle_rev1_default/quantum/action.o
                                                  .build/obj_sofle_rev1_default/keyboards/sofle/keymaps/default/keymap.o
layer_or                                          .build/obj_sofle_rev1_default/quantum/action_layer.o
                                                  .build/obj_sofle_rev1_default/quantum/action.o
layer_state                                       .build/obj_sofle_rev1_default/quantum/action_layer.o
                                                  .build/obj_sofle_rev1_default/quantum/bootmagic/magic.o
                                                  .build/obj_sofle_rev1_default/quantum/quantum.o
layer_state_cmp                                   .build/obj_sofle_rev1_default/quantum/action_layer.o
layer_state_is                                    .build/obj_sofle_rev1_default/quantum/action_layer.o
layer_state_set                                   .build/obj_sofle_rev1_default/quantum/action_layer.o
                                                  .build/obj_sofle_rev1_default/quantum/action.o
                                                  .build/obj_sofle_rev1_default/quantum/quantum.o
layer_state_set_kb                                .build/obj_sofle_rev1_default/quantum/action_layer.o
                                                  .build/obj_sofle_rev1_default/quantum/bootmagic/magic.o
layer_state_set_user                              .build/obj_sofle_rev1_default/quantum/action_layer.o
layer_switch_get_action                           .build/obj_sofle_rev1_default/quantum/action_layer.o
                                                  .build/obj_sofle_rev1_default/quantum/action_tapping.o
                                                  .build/obj_sofle_rev1_default/quantum/action.o
layer_switch_get_layer                            .build/obj_sofle_rev1_default/quantum/action_layer.o
                                                  .build/obj_sofle_rev1_default/quantum/quantum.o
layer_xor                                         .build/obj_sofle_rev1_default/quantum/action_layer.o
                                                  .build/obj_sofle_rev1_default/quantum/action.o
led_init_ports                                    .build/obj_sofle_rev1_default/quantum/led.o
                                                  .build/obj_sofle_rev1_default/quantum/quantum.o
led_set                                           .build/obj_sofle_rev1_default/quantum/led.o
                                                  .build/obj_sofle_rev1_default/common/avr/suspend.o
                                                  .build/obj_sofle_rev1_default/quantum/keyboard.o
                                                  .build/obj_sofle_rev1_default/quantum/action.o
led_set_kb                                        .build/obj_sofle_rev1_default/quantum/led.o
led_set_user                                      .build/obj_sofle_rev1_default/quantum/led.o
led_update_kb                                     .build/obj_sofle_rev1_default/quantum/led.o
led_update_user                                   .build/obj_sofle_rev1_default/quantum/led.o
lufa_driver                                       .build/obj_sofle_rev1_default/lufa.o
magic                                             .build/obj_sofle_rev1_default/quantum/bootmagic/magic.o
                                                  .build/obj_sofle_rev1_default/quantum/quantum.o
main                                              .build/obj_sofle_rev1_default/quantum/main.o
                                                  /usr/lib/gcc/avr/11.2.0/../../../../avr/lib/avr5/crtatmega32u4.o
matrix                                            .build/obj_sofle_rev1_default/quantum/matrix_common.o
                                                  .build/obj_sofle_rev1_default/quantum/matrix.o
matrix_cols                                       .build/obj_sofle_rev1_default/quantum/matrix_common.o
matrix_get_row                                    .build/obj_sofle_rev1_default/quantum/matrix_common.o
                                                  .build/obj_sofle_rev1_default/common/avr/suspend.o
                                                  .build/obj_sofle_rev1_default/quantum/keyboard.o
matrix_init                                       .build/obj_sofle_rev1_default/quantum/matrix.o
                                                  .build/obj_sofle_rev1_default/quantum/matrix_common.o
                                                  .build/obj_sofle_rev1_default/quantum/keyboard.o
matrix_init_custom                                .build/obj_sofle_rev1_default/quantum/matrix_common.o
matrix_init_kb                                    .build/obj_sofle_rev1_default/quantum/matrix_common.o
                                                  .build/obj_sofle_rev1_default/quantum/quantum.o
matrix_init_pins                                  .build/obj_sofle_rev1_default/quantum/matrix.o
matrix_init_quantum                               .build/obj_sofle_rev1_default/quantum/quantum.o
                                                  .build/obj_sofle_rev1_default/quantum/matrix.o
                                                  .build/obj_sofle_rev1_default/quantum/matrix_common.o
matrix_init_user                                  .build/obj_sofle_rev1_default/quantum/matrix_common.o
matrix_io_delay                                   .build/obj_sofle_rev1_default/quantum/matrix_common.o
matrix_is_modified                                .build/obj_sofle_rev1_default/quantum/matrix_common.o
matrix_is_on                                      .build/obj_sofle_rev1_default/quantum/matrix_common.o
matrix_key_count                                  .build/obj_sofle_rev1_default/quantum/matrix_common.o
matrix_output_select_delay                        .build/obj_sofle_rev1_default/quantum/matrix_common.o
                                                  .build/obj_sofle_rev1_default/quantum/matrix.o
matrix_output_unselect_delay                      .build/obj_sofle_rev1_default/quantum/matrix_common.o
                                                  .build/obj_sofle_rev1_default/quantum/matrix.o
matrix_post_scan                                  .build/obj_sofle_rev1_default/quantum/matrix.o
matrix_power_down                                 .build/obj_sofle_rev1_default/common/avr/suspend.o
matrix_power_up                                   .build/obj_sofle_rev1_default/common/avr/suspend.o
matrix_print                                      .build/obj_sofle_rev1_default/quantum/matrix_common.o
                                                  .build/obj_sofle_rev1_default/quantum/keyboard.o
matrix_read_cols_on_row                           .build/obj_sofle_rev1_default/quantum/matrix.o
matrix_rows                                       .build/obj_sofle_rev1_default/quantum/matrix_common.o
matrix_scan                                       .build/obj_sofle_rev1_default/quantum/matrix.o
                                                  .build/obj_sofle_rev1_default/quantum/matrix_common.o
                                                  .build/obj_sofle_rev1_default/common/avr/suspend.o
                                                  .build/obj_sofle_rev1_default/quantum/keyboard.o
matrix_scan_custom                                .build/obj_sofle_rev1_default/quantum/matrix_common.o
matrix_scan_kb                                    .build/obj_sofle_rev1_default/quantum/matrix_common.o
                                                  .build/obj_sofle_rev1_default/quantum/quantum.o
matrix_scan_quantum                               .build/obj_sofle_rev1_default/quantum/quantum.o
                                                  .build/obj_sofle_rev1_default/quantum/matrix.o
                                                  .build/obj_sofle_rev1_default/quantum/matrix_common.o
matrix_scan_user                                  .build/obj_sofle_rev1_default/quantum/matrix_common.o
matrix_setup                                      .build/obj_sofle_rev1_default/quantum/keyboard.o
matrix_slave_scan_kb                              .build/obj_sofle_rev1_default/quantum/matrix.o
matrix_slave_scan_user                            .build/obj_sofle_rev1_default/quantum/matrix.o
memcmp                                            /usr/lib/gcc/avr/11.2.0/../../../../avr/lib/avr5/libc.a(memcmp.o)
                                                  .build/obj_sofle_rev1_default/ssd1306_sh1106.o
                                                  .build/obj_sofle_rev1_default/quantum/matrix.o
memcpy                                            /usr/lib/gcc/avr/11.2.0/../../../../avr/lib/avr5/libc.a(memcpy.o)
                                                  /usr/lib/gcc/avr/11.2.0/../../../../avr/lib/avr5/libc.a(memmove.o)
                                                  .build/obj_sofle_rev1_default/quantum/split_common/transactions.o
                                                  .build/obj_sofle_rev1_default/quantum/split_common/transport.o
memcpy_P                                          /usr/lib/gcc/avr/11.2.0/../../../../avr/lib/avr5/libc.a(memcpy_P.o)
                                                  .build/obj_sofle_rev1_default/ssd1306_sh1106.o
memmove                                           /usr/lib/gcc/avr/11.2.0/../../../../avr/lib/avr5/libc.a(memmove.o)
                                                  .build/obj_sofle_rev1_default/lib/lufa/LUFA/Drivers/USB/Class/Common/HIDParser.o
                                                  .build/obj_sofle_rev1_default/ssd1306_sh1106.o
mod_config                                        .build/obj_sofle_rev1_default/quantum/keycode_config.o
                                                  .build/obj_sofle_rev1_default/quantum/keymap_common.o
                                                  .build/obj_sofle_rev1_default/keyboards/sofle/keymaps/default/keymap.o
oled_active                                       .build/obj_sofle_rev1_default/ssd1306_sh1106.o
oled_advance_char                                 .build/obj_sofle_rev1_default/ssd1306_sh1106.o
oled_advance_page                                 .build/obj_sofle_rev1_default/ssd1306_sh1106.o
oled_brightness                                   .build/obj_sofle_rev1_default/ssd1306_sh1106.o
oled_buffer                                       .build/obj_sofle_rev1_default/ssd1306_sh1106.o
oled_clear                                        .build/obj_sofle_rev1_default/ssd1306_sh1106.o
oled_cursor                                       .build/obj_sofle_rev1_default/ssd1306_sh1106.o
oled_dirty                                        .build/obj_sofle_rev1_default/ssd1306_sh1106.o
oled_get_brightness                               .build/obj_sofle_rev1_default/ssd1306_sh1106.o
oled_init                                         .build/obj_sofle_rev1_default/ssd1306_sh1106.o
                                                  .build/obj_sofle_rev1_default/quantum/keyboard.o
oled_init_user                                    .build/obj_sofle_rev1_default/ssd1306_sh1106.o
oled_initialized                                  .build/obj_sofle_rev1_default/ssd1306_sh1106.o
oled_invert                                       .build/obj_sofle_rev1_default/ssd1306_sh1106.o
oled_inverted                                     .build/obj_sofle_rev1_default/ssd1306_sh1106.o
oled_max_chars                                    .build/obj_sofle_rev1_default/ssd1306_sh1106.o
oled_max_lines                                    .build/obj_sofle_rev1_default/ssd1306_sh1106.o
oled_off                                          .build/obj_sofle_rev1_default/ssd1306_sh1106.o
oled_on                                           .build/obj_sofle_rev1_default/ssd1306_sh1106.o
                                                  .build/obj_sofle_rev1_default/quantum/keyboard.o
oled_pan                                          .build/obj_sofle_rev1_default/ssd1306_sh1106.o
oled_read_raw                                     .build/obj_sofle_rev1_default/ssd1306_sh1106.o
oled_render                                       .build/obj_sofle_rev1_default/ssd1306_sh1106.o
oled_rotation                                     .build/obj_sofle_rev1_default/ssd1306_sh1106.o
oled_rotation_width                               .build/obj_sofle_rev1_default/ssd1306_sh1106.o
oled_scroll_end                                   .build/obj_sofle_rev1_default/ssd1306_sh1106.o
oled_scroll_left                                  .build/obj_sofle_rev1_default/ssd1306_sh1106.o
                                                  .build/obj_sofle_rev1_default/keyboards/sofle/keymaps/default/keymap.o
oled_scroll_off                                   .build/obj_sofle_rev1_default/ssd1306_sh1106.o
oled_scroll_right                                 .build/obj_sofle_rev1_default/ssd1306_sh1106.o
oled_scroll_set_area                              .build/obj_sofle_rev1_default/ssd1306_sh1106.o
oled_scroll_set_speed                             .build/obj_sofle_rev1_default/ssd1306_sh1106.o
oled_scroll_speed                                 .build/obj_sofle_rev1_default/ssd1306_sh1106.o
oled_scroll_start                                 .build/obj_sofle_rev1_default/ssd1306_sh1106.o
oled_scrolling                                    .build/obj_sofle_rev1_default/ssd1306_sh1106.o
oled_set_brightness                               .build/obj_sofle_rev1_default/ssd1306_sh1106.o
oled_set_cursor                                   .build/obj_sofle_rev1_default/ssd1306_sh1106.o
oled_task                                         .build/obj_sofle_rev1_default/ssd1306_sh1106.o
                                                  .build/obj_sofle_rev1_default/quantum/keyboard.o
oled_task_user                                    .build/obj_sofle_rev1_default/keyboards/sofle/keymaps/default/keymap.o
oled_timeout                                      .build/obj_sofle_rev1_default/ssd1306_sh1106.o
oled_update_timeout                               .build/obj_sofle_rev1_default/ssd1306_sh1106.o
oled_write                                        .build/obj_sofle_rev1_default/ssd1306_sh1106.o
oled_write_P                                      .build/obj_sofle_rev1_default/ssd1306_sh1106.o
                                                  .build/obj_sofle_rev1_default/keyboards/sofle/keymaps/default/keymap.o
oled_write_char                                   .build/obj_sofle_rev1_default/ssd1306_sh1106.o
oled_write_ln                                     .build/obj_sofle_rev1_default/ssd1306_sh1106.o
oled_write_ln_P                                   .build/obj_sofle_rev1_default/ssd1306_sh1106.o
oled_write_pixel                                  .build/obj_sofle_rev1_default/ssd1306_sh1106.o
oled_write_raw                                    .build/obj_sofle_rev1_default/ssd1306_sh1106.o
oled_write_raw_P                                  .build/obj_sofle_rev1_default/ssd1306_sh1106.o
oled_write_raw_byte                               .build/obj_sofle_rev1_default/ssd1306_sh1106.o
oneshot_disable                                   .build/obj_sofle_rev1_default/quantum/action_util.o
                                                  .build/obj_sofle_rev1_default/quantum/quantum.o
oneshot_enable                                    .build/obj_sofle_rev1_default/quantum/action_util.o
                                                  .build/obj_sofle_rev1_default/quantum/quantum.o
oneshot_layer_changed_kb                          .build/obj_sofle_rev1_default/quantum/action_util.o
oneshot_layer_changed_user                        .build/obj_sofle_rev1_default/quantum/action_util.o
oneshot_locked_mods_changed_kb                    .build/obj_sofle_rev1_default/quantum/action_util.o
oneshot_locked_mods_changed_user                  .build/obj_sofle_rev1_default/quantum/action_util.o
oneshot_mods_changed_kb                           .build/obj_sofle_rev1_default/quantum/action_util.o
oneshot_mods_changed_user                         .build/obj_sofle_rev1_default/quantum/action_util.o
oneshot_set                                       .build/obj_sofle_rev1_default/quantum/action_util.o
oneshot_toggle                                    .build/obj_sofle_rev1_default/quantum/action_util.o
                                                  .build/obj_sofle_rev1_default/quantum/quantum.o
peek_matrix                                       .build/obj_sofle_rev1_default/quantum/matrix_common.o
perform_space_cadet                               .build/obj_sofle_rev1_default/quantum/process_keycode/process_space_cadet.o
platform_setup                                    .build/obj_sofle_rev1_default/common/avr/platform.o
                                                  .build/obj_sofle_rev1_default/quantum/main.o
post_process_record_kb                            .build/obj_sofle_rev1_default/quantum/quantum.o
post_process_record_quantum                       .build/obj_sofle_rev1_default/quantum/quantum.o
post_process_record_user                          .build/obj_sofle_rev1_default/quantum/quantum.o
pre_process_record_quantum                        .build/obj_sofle_rev1_default/quantum/quantum.o
print_set_sendchar                                .build/obj_sofle_rev1_default/common/avr/printf.o
                                                  .build/obj_sofle_rev1_default/quantum/keyboard.o
process_action                                    .build/obj_sofle_rev1_default/quantum/action.o
process_action_kb                                 .build/obj_sofle_rev1_default/quantum/quantum.o
process_grave_esc                                 .build/obj_sofle_rev1_default/quantum/process_keycode/process_grave_esc.o
                                                  .build/obj_sofle_rev1_default/quantum/quantum.o
process_hand_swap                                 .build/obj_sofle_rev1_default/quantum/action.o
process_magic                                     .build/obj_sofle_rev1_default/quantum/process_keycode/process_magic.o
                                                  .build/obj_sofle_rev1_default/quantum/quantum.o
process_record                                    .build/obj_sofle_rev1_default/quantum/action.o
                                                  .build/obj_sofle_rev1_default/quantum/action_tapping.o
process_record_handler                            .build/obj_sofle_rev1_default/quantum/action.o
process_record_kb                                 .build/obj_sofle_rev1_default/quantum/quantum.o
process_record_nocache                            .build/obj_sofle_rev1_default/quantum/action.o
process_record_quantum                            .build/obj_sofle_rev1_default/quantum/quantum.o
process_record_tap_hint                           .build/obj_sofle_rev1_default/quantum/action.o
                                                  .build/obj_sofle_rev1_default/quantum/action_tapping.o
process_record_user                               .build/obj_sofle_rev1_default/keyboards/sofle/keymaps/default/keymap.o
process_space_cadet                               .build/obj_sofle_rev1_default/quantum/process_keycode/process_space_cadet.o
                                                  .build/obj_sofle_rev1_default/quantum/quantum.o
protocol_init                                     .build/obj_sofle_rev1_default/lufa.o
                                                  .build/obj_sofle_rev1_default/quantum/main.o
protocol_setup                                    .build/obj_sofle_rev1_default/lufa.o
                                                  .build/obj_sofle_rev1_default/quantum/main.o
protocol_task                                     .build/obj_sofle_rev1_default/lufa.o
                                                  .build/obj_sofle_rev1_default/quantum/main.o
raw_matrix                                        .build/obj_sofle_rev1_default/quantum/matrix_common.o
                                                  .build/obj_sofle_rev1_default/quantum/matrix.o
read_source_layers_cache                          .build/obj_sofle_rev1_default/quantum/action_layer.o
                                                  .build/obj_sofle_rev1_default/quantum/quantum.o
register_code                                     .build/obj_sofle_rev1_default/quantum/action.o
                                                  .build/obj_sofle_rev1_default/quantum/send_string.o
                                                  .build/obj_sofle_rev1_default/quantum/quantum.o
                                                  .build/obj_sofle_rev1_default/keyboards/sofle/keymaps/default/keymap.o
register_code16                                   .build/obj_sofle_rev1_default/quantum/quantum.o
register_mods                                     .build/obj_sofle_rev1_default/quantum/action.o
                                                  .build/obj_sofle_rev1_default/quantum/process_keycode/process_space_cadet.o
                                                  .build/obj_sofle_rev1_default/quantum/quantum.o
                                                  .build/obj_sofle_rev1_default/keyboards/sofle/keymaps/default/keymap.o
register_weak_mods                                .build/obj_sofle_rev1_default/quantum/action.o
                                                  .build/obj_sofle_rev1_default/quantum/quantum.o
release_oneshot_swaphands                         .build/obj_sofle_rev1_default/quantum/action_util.o
                                                  .build/obj_sofle_rev1_default/quantum/action.o
reset_key                                         .build/obj_sofle_rev1_default/common/avr/bootloader.o
reset_keyboard                                    .build/obj_sofle_rev1_default/quantum/quantum.o
reset_oneshot_layer                               .build/obj_sofle_rev1_default/quantum/action_util.o
send_byte                                         .build/obj_sofle_rev1_default/quantum/send_string.o
send_char                                         .build/obj_sofle_rev1_default/quantum/send_string.o
send_digitizer                                    .build/obj_sofle_rev1_default/lufa.o
                                                  .build/obj_sofle_rev1_default/common/host.o
send_dword                                        .build/obj_sofle_rev1_default/quantum/send_string.o
send_keyboard_report                              .build/obj_sofle_rev1_default/quantum/action_util.o
                                                  .build/obj_sofle_rev1_default/quantum/process_keycode/process_grave_esc.o
                                                  .build/obj_sofle_rev1_default/quantum/action.o
send_nibble                                       .build/obj_sofle_rev1_default/quantum/send_string.o
send_string                                       .build/obj_sofle_rev1_default/quantum/send_string.o
send_string_P                                     .build/obj_sofle_rev1_default/quantum/send_string.o
send_string_with_delay                            .build/obj_sofle_rev1_default/quantum/send_string.o
send_string_with_delay_P                          .build/obj_sofle_rev1_default/quantum/send_string.o
send_word                                         .build/obj_sofle_rev1_default/quantum/send_string.o
sendchar                                          .build/obj_sofle_rev1_default/lufa.o
                                                  .build/obj_sofle_rev1_default/quantum/logging/sendchar.o
                                                  .build/obj_sofle_rev1_default/quantum/keyboard.o
serial_write_chunk                                .build/obj_sofle_rev1_default/serial.a(serial.o)
set_macro_mods                                    .build/obj_sofle_rev1_default/quantum/action_util.o
set_mods                                          .build/obj_sofle_rev1_default/quantum/action_util.o
set_oneshot_layer                                 .build/obj_sofle_rev1_default/quantum/action_util.o
                                                  .build/obj_sofle_rev1_default/quantum/action.o
set_oneshot_locked_mods                           .build/obj_sofle_rev1_default/quantum/action_util.o
set_oneshot_mods                                  .build/obj_sofle_rev1_default/quantum/action_util.o
                                                  .build/obj_sofle_rev1_default/quantum/action.o
set_oneshot_swaphands                             .build/obj_sofle_rev1_default/quantum/action_util.o
                                                  .build/obj_sofle_rev1_default/quantum/action.o
set_single_persistent_default_layer               .build/obj_sofle_rev1_default/quantum/quantum.o
                                                  .build/obj_sofle_rev1_default/keyboards/sofle/keymaps/default/keymap.o
set_split_host_keyboard_leds                      .build/obj_sofle_rev1_default/common/host.o
set_weak_mods                                     .build/obj_sofle_rev1_default/quantum/action_util.o
should_process_keypress                           .build/obj_sofle_rev1_default/quantum/keyboard.o
shutdown_user                                     .build/obj_sofle_rev1_default/quantum/quantum.o
soft_serial_get_and_clean_status                  .build/obj_sofle_rev1_default/serial.a(serial.o)
soft_serial_initiator_init                        .build/obj_sofle_rev1_default/serial.a(serial.o)
                                                  .build/obj_sofle_rev1_default/quantum/split_common/transport.o
soft_serial_target_init                           .build/obj_sofle_rev1_default/serial.a(serial.o)
                                                  .build/obj_sofle_rev1_default/quantum/split_common/transport.o
soft_serial_transaction                           .build/obj_sofle_rev1_default/serial.a(serial.o)
                                                  .build/obj_sofle_rev1_default/quantum/split_common/transport.o
source_layers_cache                               .build/obj_sofle_rev1_default/quantum/action_layer.o
split_led_state                                   .build/obj_sofle_rev1_default/common/host.o
split_post_init                                   .build/obj_sofle_rev1_default/quantum/split_common/split_util.o
                                                  .build/obj_sofle_rev1_default/quantum/matrix.o
split_pre_init                                    .build/obj_sofle_rev1_default/quantum/split_common/split_util.o
                                                  .build/obj_sofle_rev1_default/quantum/matrix.o
split_shmem                                       .build/obj_sofle_rev1_default/quantum/split_common/transport.o
                                                  .build/obj_sofle_rev1_default/serial.a(serial.o)
                                                  .build/obj_sofle_rev1_default/quantum/split_common/transactions.o
split_transaction_table                           .build/obj_sofle_rev1_default/quantum/split_common/transactions.o
                                                  .build/obj_sofle_rev1_default/serial.a(serial.o)
                                                  .build/obj_sofle_rev1_default/quantum/split_common/transport.o
startup_user                                      .build/obj_sofle_rev1_default/quantum/quantum.o
store_or_get_action                               .build/obj_sofle_rev1_default/quantum/action_layer.o
                                                  .build/obj_sofle_rev1_default/quantum/action.o
suspend_idle                                      .build/obj_sofle_rev1_default/common/avr/suspend.o
suspend_power_down                                .build/obj_sofle_rev1_default/common/avr/suspend.o
                                                  .build/obj_sofle_rev1_default/lufa.o
suspend_power_down_kb                             .build/obj_sofle_rev1_default/common/avr/suspend.o
suspend_power_down_user                           .build/obj_sofle_rev1_default/common/avr/suspend.o
suspend_wakeup_condition                          .build/obj_sofle_rev1_default/common/avr/suspend.o
                                                  .build/obj_sofle_rev1_default/lufa.o
suspend_wakeup_init                               .build/obj_sofle_rev1_default/common/avr/suspend.o
                                                  .build/obj_sofle_rev1_default/lufa.o
suspend_wakeup_init_kb                            .build/obj_sofle_rev1_default/common/avr/suspend.o
suspend_wakeup_init_user                          .build/obj_sofle_rev1_default/common/avr/suspend.o
swap_hands                                        .build/obj_sofle_rev1_default/quantum/action.o
                                                  .build/obj_sofle_rev1_default/quantum/action_util.o
swap_hands_oneshot                                .build/obj_sofle_rev1_default/quantum/action_util.o
swap_held                                         .build/obj_sofle_rev1_default/quantum/action.o
switch_events                                     .build/obj_sofle_rev1_default/quantum/keyboard.o
sync_timer_elapsed                                .build/obj_sofle_rev1_default/common/sync_timer.o
sync_timer_elapsed32                              .build/obj_sofle_rev1_default/common/sync_timer.o
sync_timer_init                                   .build/obj_sofle_rev1_default/common/sync_timer.o
                                                  .build/obj_sofle_rev1_default/quantum/keyboard.o
sync_timer_ms                                     .build/obj_sofle_rev1_default/common/sync_timer.o
sync_timer_read                                   .build/obj_sofle_rev1_default/common/sync_timer.o
sync_timer_read32                                 .build/obj_sofle_rev1_default/common/sync_timer.o
                                                  .build/obj_sofle_rev1_default/quantum/split_common/transactions.o
sync_timer_update                                 .build/obj_sofle_rev1_default/common/sync_timer.o
                                                  .build/obj_sofle_rev1_default/quantum/split_common/transactions.o
tap_code                                          .build/obj_sofle_rev1_default/quantum/action.o
                                                  .build/obj_sofle_rev1_default/quantum/process_keycode/process_space_cadet.o
                                                  .build/obj_sofle_rev1_default/quantum/send_string.o
                                                  .build/obj_sofle_rev1_default/keyboards/sofle/keymaps/default/keymap.o
tap_code16                                        .build/obj_sofle_rev1_default/quantum/quantum.o
tap_code_delay                                    .build/obj_sofle_rev1_default/quantum/action.o
tap_random_base64                                 .build/obj_sofle_rev1_default/quantum/send_string.o
thatHand                                          .build/obj_sofle_rev1_default/quantum/matrix.o
thisHand                                          .build/obj_sofle_rev1_default/quantum/matrix.o
timer_clear                                       .build/obj_sofle_rev1_default/common/avr/timer.o
timer_count                                       .build/obj_sofle_rev1_default/common/avr/timer.o
                                                  .build/obj_sofle_rev1_default/common/avr/suspend.o
timer_elapsed                                     .build/obj_sofle_rev1_default/common/avr/timer.o
                                                  .build/obj_sofle_rev1_default/common/sync_timer.o
                                                  .build/obj_sofle_rev1_default/i2c_master.a(i2c_master.o)
                                                  .build/obj_sofle_rev1_default/quantum/process_keycode/process_space_cadet.o
                                                  .build/obj_sofle_rev1_default/ssd1306_sh1106.o
                                                  .build/obj_sofle_rev1_default/quantum/split_common/split_util.o
                                                  .build/obj_sofle_rev1_default/quantum/debounce/sym_defer_g.o
timer_elapsed32                                   .build/obj_sofle_rev1_default/common/avr/timer.o
                                                  .build/obj_sofle_rev1_default/common/sync_timer.o
                                                  .build/obj_sofle_rev1_default/quantum/split_common/transactions.o
                                                  .build/obj_sofle_rev1_default/quantum/keyboard.o
timer_init                                        .build/obj_sofle_rev1_default/common/avr/timer.o
                                                  .build/obj_sofle_rev1_default/quantum/keyboard.o
timer_read                                        .build/obj_sofle_rev1_default/common/avr/timer.o
                                                  .build/obj_sofle_rev1_default/common/sync_timer.o
                                                  .build/obj_sofle_rev1_default/i2c_master.a(i2c_master.o)
                                                  .build/obj_sofle_rev1_default/quantum/process_keycode/process_space_cadet.o
                                                  .build/obj_sofle_rev1_default/ssd1306_sh1106.o
                                                  .build/obj_sofle_rev1_default/quantum/split_common/split_util.o
                                                  .build/obj_sofle_rev1_default/quantum/debounce/sym_defer_g.o
                                                  .build/obj_sofle_rev1_default/quantum/keyboard.o
timer_read32                                      .build/obj_sofle_rev1_default/common/avr/timer.o
                                                  .build/obj_sofle_rev1_default/common/sync_timer.o
                                                  .build/obj_sofle_rev1_default/ssd1306_sh1106.o
                                                  .build/obj_sofle_rev1_default/quantum/split_common/transactions.o
                                                  .build/obj_sofle_rev1_default/quantum/keyboard.o
tp_buttons                                        .build/obj_sofle_rev1_default/quantum/action.o
transactions_master                               .build/obj_sofle_rev1_default/quantum/split_common/transactions.o
                                                  .build/obj_sofle_rev1_default/quantum/split_common/transport.o
transactions_slave                                .build/obj_sofle_rev1_default/quantum/split_common/transactions.o
                                                  .build/obj_sofle_rev1_default/quantum/split_common/transport.o
transport_execute_transaction                     .build/obj_sofle_rev1_default/quantum/split_common/transport.o
                                                  .build/obj_sofle_rev1_default/quantum/split_common/transactions.o
transport_master                                  .build/obj_sofle_rev1_default/quantum/split_common/transport.o
                                                  .build/obj_sofle_rev1_default/quantum/split_common/split_util.o
                                                  .build/obj_sofle_rev1_default/quantum/matrix.o
transport_master_if_connected                     .build/obj_sofle_rev1_default/quantum/split_common/split_util.o
                                                  .build/obj_sofle_rev1_default/quantum/matrix.o
transport_master_init                             .build/obj_sofle_rev1_default/quantum/split_common/transport.o
                                                  .build/obj_sofle_rev1_default/quantum/split_common/split_util.o
transport_slave                                   .build/obj_sofle_rev1_default/quantum/split_common/transport.o
                                                  .build/obj_sofle_rev1_default/quantum/matrix.o
transport_slave_init                              .build/obj_sofle_rev1_default/quantum/split_common/transport.o
                                                  .build/obj_sofle_rev1_default/quantum/split_common/split_util.o
unregister_code                                   .build/obj_sofle_rev1_default/quantum/action.o
                                                  .build/obj_sofle_rev1_default/quantum/send_string.o
                                                  .build/obj_sofle_rev1_default/quantum/quantum.o
                                                  .build/obj_sofle_rev1_default/keyboards/sofle/keymaps/default/keymap.o
unregister_code16                                 .build/obj_sofle_rev1_default/quantum/quantum.o
unregister_mods                                   .build/obj_sofle_rev1_default/quantum/action.o
                                                  .build/obj_sofle_rev1_default/quantum/process_keycode/process_space_cadet.o
                                                  .build/obj_sofle_rev1_default/quantum/quantum.o
                                                  .build/obj_sofle_rev1_default/keyboards/sofle/keymaps/default/keymap.o
unregister_weak_mods                              .build/obj_sofle_rev1_default/quantum/action.o
                                                  .build/obj_sofle_rev1_default/quantum/quantum.o
update_source_layers_cache                        .build/obj_sofle_rev1_default/quantum/action_layer.o
                                                  .build/obj_sofle_rev1_default/quantum/quantum.o
update_tri_layer                                  .build/obj_sofle_rev1_default/quantum/quantum.o
                                                  .build/obj_sofle_rev1_default/keyboards/sofle/keymaps/default/keymap.o
update_tri_layer_state                            .build/obj_sofle_rev1_default/quantum/quantum.o
usb_connected_state                               .build/obj_sofle_rev1_default/protocol/lufa/usb_util.o
                                                  .build/obj_sofle_rev1_default/common/usb_util.o
usb_disconnect                                    .build/obj_sofle_rev1_default/protocol/lufa/usb_util.o
                                                  .build/obj_sofle_rev1_default/common/usb_util.o
                                                  .build/obj_sofle_rev1_default/quantum/split_common/split_util.o
usb_vbus_state                                    .build/obj_sofle_rev1_default/protocol/lufa/usb_util.o
                                                  .build/obj_sofle_rev1_default/common/usb_util.o
                                                  .build/obj_sofle_rev1_default/quantum/split_common/split_util.o
use_oneshot_swaphands                             .build/obj_sofle_rev1_default/quantum/action_util.o
                                                  .build/obj_sofle_rev1_default/quantum/action.o
xfunc_out                                         .build/obj_sofle_rev1_default/common/avr/xprintf.o
                                                  .build/obj_sofle_rev1_default/common/avr/printf.o
xitoa                                             .build/obj_sofle_rev1_default/common/avr/xprintf.o
xputc                                             .build/obj_sofle_rev1_default/common/avr/xprintf.o
xputs                                             .build/obj_sofle_rev1_default/common/avr/xprintf.o
                                                  .build/obj_sofle_rev1_default/lufa.o
                                                  .build/obj_sofle_rev1_default/common/host.o
                                                  .build/obj_sofle_rev1_default/ssd1306_sh1106.o
                                                  .build/obj_sofle_rev1_default/quantum/split_common/split_util.o
                                                  .build/obj_sofle_rev1_default/quantum/matrix_common.o
                                                  .build/obj_sofle_rev1_default/quantum/keyboard.o
                                                  .build/obj_sofle_rev1_default/quantum/quantum.o
